(dp0
VServer
p1
Vcmsweb.cern.ch
p2
sVPort
p3
V
p4
sVRequestName
p5
V250323_202744:kakang_crab_JetHT_Run2022C_22Sep2023_v1_MINIAOD_ver0
p6
sVvoRole
p7
VNULL
p8
sVvoGroup
p9
Vbecms
p10
sVinstance
p11
Vprod
p12
sVOriginalConfig
p13
ccopy_reg
_reconstructor
p14
(cWMCore.Configuration
Configuration
p15
c__builtin__
object
p16
Ntp17
Rp18
(dp19
V_internal_sections
p20
(lp21
VGeneral
p22
aVJobType
p23
aVData
p24
aVUser
p25
aVSite
p26
asg22
g14
(cWMCore.Configuration
ConfigSection
p27
g16
Ntp28
Rp29
(dp30
V_internal_documentation
p31
g4
sV_internal_name
p32
g22
sV_internal_settings
p33
c__builtin__
set
p34
((lp35
VrequestName
p36
aVtransferLogs
p37
atp38
Rp39
sV_internal_docstrings
p40
(dp41
sV_internal_children
p42
g34
((lp43
tp44
Rp45
sV_internal_parent_ref
p46
NsV_internal_skipChecks
p47
I00
sg36
VJetHT_Run2022C_22Sep2023_v1_MINIAOD_ver0
p48
sg37
I01
sbsg23
g14
(g27
g16
Ntp49
Rp50
(dp51
g31
g4
sg32
g23
sg33
g34
((lp52
VpyCfgParams
p53
aVpsetName
p54
aVpluginName
p55
aVallowUndistributedCMSSW
p56
atp57
Rp58
sg40
(dp59
sg42
g34
((lp60
tp61
Rp62
sg46
Nsg47
I00
sg54
V../test/residuals.py
p63
sg55
VAnalysis
p64
sg53
(lp65
VisData=1
p66
aVwithBS=1
p67
aVis2022=0
p68
asg56
I01
sbsg24
g14
(g27
g16
Ntp69
Rp70
(dp71
g31
g4
sg32
g24
sg33
g34
((lp72
VoutputDatasetTag
p73
aVinputDataset
p74
aVpublication
p75
aVunitsPerJob
p76
aVoutLFNDirBase
p77
aVpublishDBS
p78
aVtotalUnits
p79
aVsplitting
p80
atp81
Rp82
sg40
(dp83
sg42
g34
((lp84
tp85
Rp86
sg46
Nsg47
I00
sg80
VLumiBased
p87
sg79
I-1
sg76
I50
sg75
I00
sg74
V/JetHT/Run2022C-22Sep2023-v1/MINIAOD
p88
sg73
VJetHT_Run2022C_22Sep2023_v1_MINIAOD
p89
sg78
Vhttps://cmsweb.cern.ch/dbs/prod/phys03/DBSWriter
p90
sg77
V/store/user/kakang/Run3TrackingAnalysis/Ntuple/Track-v20250319/JetHT_MINIAOD/Run2022C_22Sep2023_v1
p91
sbsg25
g14
(g27
g16
Ntp92
Rp93
(dp94
g31
g4
sg32
g25
sg33
g34
((lp95
g9
atp96
Rp97
sg40
(dp98
sg42
g34
((lp99
tp100
Rp101
sg46
Nsg47
I00
sg9
g10
sbsg26
g14
(g27
g16
Ntp102
Rp103
(dp104
g31
g4
sg32
g26
sg33
g34
((lp105
VstorageSite
p106
atp107
Rp108
sg40
(dp109
sg42
g34
((lp110
tp111
Rp112
sg46
Nsg47
I00
sg106
VT2_BE_IIHE
p113
sbsbs.