ccopy_reg
_reconstructor
p0
(cFWCore.ParameterSet.Config
Process
p1
c__builtin__
object
p2
Ntp3
Rp4
(dp5
V_Process__name
p6
VIpResiduals
p7
sV_Process__filters
p8
(dp9
sV_Process__producers
p10
(dp11
VofflinePrimaryVertices
p12
g0
(cFWCore.ParameterSet.Modules
EDProducer
p13
g2
Ntp14
Rp15
(dp16
V_TypedParameterizable__type
p17
VPrimaryVertexProducer
p18
sV_Parameterizable__parameterNames
p19
(lp20
Vverbose
p21
aVTrackLabel
p22
aVbeamSpotLabel
p23
aVTkFilterParameters
p24
aVTkClusParameters
p25
aVvertexCollections
p26
aVisRecoveryIteration
p27
aVrecoveryVtxCollection
p28
asV_isFrozen
p29
I00
sV_Parameterizable__validator
p30
Nsg21
g0
(cFWCore.ParameterSet.Types
bool
p31
g2
Ntp32
Rp33
(dp34
g29
I00
sV_ParameterTypeBase__isTracked
p35
I00
sV_isModified
p36
I00
sV_value
p37
I00
sbsg36
I00
sg22
g0
(cFWCore.ParameterSet.Types
InputTag
p38
g2
Ntp39
Rp40
(dp41
g29
I00
sg35
I01
sg36
I00
sV_InputTag__moduleLabel
p42
VgeneralTracks
p43
sV_InputTag__productInstance
p44
V
p45
sV_InputTag__processName
p46
g45
sbsg23
g0
(g38
g2
Ntp47
Rp48
(dp49
g29
I00
sg35
I01
sg36
I00
sg42
VofflineBeamSpot
p50
sg44
g45
sg46
g45
sbsg24
g0
(cFWCore.ParameterSet.Types
PSet
p51
g2
Ntp52
Rp53
(dp54
g29
I00
sg35
I01
sg36
I00
sg19
(lp55
Valgorithm
p56
aVmaxNormalizedChi2
p57
aVminPixelLayersWithHits
p58
aVminSiliconLayersWithHits
p59
aVmaxD0Significance
p60
aVmaxD0Error
p61
aVmaxDzError
p62
aVminPt
p63
aVmaxEta
p64
aVtrackQuality
p65
asg30
Nsg56
g0
(cFWCore.ParameterSet.Types
string
p66
g2
Ntp67
Rp68
(dp69
g29
I00
sg35
I01
sg36
I00
sg37
Vfilter
p70
sbsg57
g0
(cFWCore.ParameterSet.Types
double
p71
g2
Ntp72
Rp73
(dp74
g29
I00
sg35
I01
sg36
I00
sg37
F10.0
sbsg58
g0
(cFWCore.ParameterSet.Types
int32
p75
g2
Ntp76
Rp77
(dp78
g29
I00
sg35
I01
sg36
I00
sg37
I2
sbsg59
g0
(g75
g2
Ntp79
Rp80
(dp81
g29
I00
sg35
I01
sg36
I00
sg37
I5
sbsg60
g0
(g71
g2
Ntp82
Rp83
(dp84
g29
I00
sg35
I01
sg36
I00
sg37
F4.0
sbsg61
g0
(g71
g2
Ntp85
Rp86
(dp87
g29
I00
sg35
I01
sg36
I00
sg37
F1.0
sbsg62
g0
(g71
g2
Ntp88
Rp89
(dp90
g29
I00
sg35
I01
sg36
I00
sg37
F1.0
sbsg63
g0
(g71
g2
Ntp91
Rp92
(dp93
g29
I00
sg35
I01
sg36
I00
sg37
F0.0
sbsg64
g0
(g71
g2
Ntp94
Rp95
(dp96
g29
I00
sg35
I01
sg36
I00
sg37
F2.4
sbsg65
g0
(g66
g2
Ntp97
Rp98
(dp99
g29
I00
sg35
I01
sg36
I00
sg37
Vany
p100
sbsbsg25
g0
(g51
g2
Ntp101
Rp102
(dp103
g29
I00
sg35
I01
sg36
I00
sg19
(lp104
g56
aVTkDAClusParameters
p105
asg30
Nsg56
g0
(g66
g2
Ntp106
Rp107
(dp108
g29
I00
sg35
I01
sg36
I00
sg37
VDA_vect
p109
sbsg105
g0
(g51
g2
Ntp110
Rp111
(dp112
g29
I00
sg35
I01
sg36
I00
sg19
(lp113
VcoolingFactor
p114
aVzrange
p115
aVdelta_highT
p116
aVdelta_lowT
p117
aVconvergence_mode
p118
aVTmin
p119
aVTpurge
p120
aVTstop
p121
aVvertexSize
p122
aVd0CutOff
p123
aVdzCutOff
p124
aVzmerge
p125
aVuniquetrkweight
p126
aVuniquetrkminp
p127
aVrunInBlocks
p128
aVblock_size
p129
aVoverlap_frac
p130
asg30
Nsg114
g0
(g71
g2
Ntp131
Rp132
(dp133
g29
I00
sg35
I01
sg36
I00
sg37
F0.6
sbsg115
g0
(g71
g2
Ntp134
Rp135
(dp136
g29
I00
sg35
I01
sg36
I00
sg37
F4.0
sbsg116
g0
(g71
g2
Ntp137
Rp138
(dp139
g29
I00
sg35
I01
sg36
I00
sg37
F0.01
sbsg117
g0
(g71
g2
Ntp140
Rp141
(dp142
g29
I00
sg35
I01
sg36
I00
sg37
F0.001
sbsg118
g0
(g75
g2
Ntp143
Rp144
(dp145
g29
I00
sg35
I01
sg36
I00
sg37
I0
sbsg119
g0
(g71
g2
Ntp146
Rp147
(dp148
g29
I00
sg35
I01
sg36
I00
sg37
F2.0
sbsg120
g0
(g71
g2
Ntp149
Rp150
(dp151
g29
I00
sg35
I01
sg36
I00
sg37
F2.0
sbsg121
g0
(g71
g2
Ntp152
Rp153
(dp154
g29
I00
sg35
I01
sg36
I00
sg37
F0.5
sbsg122
g0
(g71
g2
Ntp155
Rp156
(dp157
g29
I00
sg35
I01
sg36
I00
sg37
F0.006
sbsg123
g0
(g71
g2
Ntp158
Rp159
(dp160
g29
I00
sg35
I01
sg36
I00
sg37
F3.0
sbsg124
g0
(g71
g2
Ntp161
Rp162
(dp163
g29
I00
sg35
I01
sg36
I00
sg37
F3.0
sbsg125
g0
(g71
g2
Ntp164
Rp165
(dp166
g29
I00
sg35
I01
sg36
I00
sg37
F0.01
sbsg126
g0
(g71
g2
Ntp167
Rp168
(dp169
g29
I00
sg35
I01
sg36
I00
sg37
F0.8
sbsg127
g0
(g71
g2
Ntp170
Rp171
(dp172
g29
I00
sg35
I01
sg36
I00
sg37
F0.0
sbsg128
g0
(g31
g2
Ntp173
Rp174
(dp175
g29
I00
sg35
I01
sg36
I00
sg37
I00
sbsg129
g0
(cFWCore.ParameterSet.Types
uint32
p176
g2
Ntp177
Rp178
(dp179
g29
I00
sg35
I01
sg36
I00
sg37
I10000
sbsg130
g0
(g71
g2
Ntp180
Rp181
(dp182
g29
I00
sg35
I01
sg36
I00
sg37
F0.0
sbsbsbsg26
g0
(cFWCore.ParameterSet.Types
VPSet
p183
c__builtin__
list
p184
(lp185
g0
(g51
g2
Ntp186
Rp187
(dp188
g29
I00
sg35
I01
sg36
I00
sg19
(lp189
Vlabel
p190
ag56
aVchi2cutoff
p191
aVminNdof
p192
aVuseBeamConstraint
p193
aVmaxDistanceToBeam
p194
asg30
Nsg190
g0
(g66
g2
Ntp195
Rp196
(dp197
g29
I00
sg35
I01
sg36
I00
sg37
g45
sbsg56
g0
(g66
g2
Ntp198
Rp199
(dp200
g29
I00
sg35
I01
sg36
I00
sg37
VAdaptiveVertexFitter
p201
sbsg191
g0
(g71
g2
Ntp202
Rp203
(dp204
g29
I00
sg35
I01
sg36
I00
sg37
F2.5
sbsg192
g0
(g71
g2
Ntp205
Rp206
(dp207
g29
I00
sg35
I01
sg36
I00
sg37
F0.0
sbsg193
g0
(g31
g2
Ntp208
Rp209
(dp210
g29
I00
sg35
I01
sg36
I00
sg37
I00
sbsg194
g0
(g71
g2
Ntp211
Rp212
(dp213
g29
I00
sg35
I01
sg36
I00
sg37
F1.0
sbsbag0
(g51
g2
Ntp214
Rp215
(dp216
g29
I00
sg35
I01
sg36
I00
sg19
(lp217
g190
ag56
ag191
ag192
ag193
ag194
asg30
Nsg190
g0
(g66
g2
Ntp218
Rp219
(dp220
g29
I00
sg35
I01
sg36
I00
sg37
VWithBS
p221
sbsg56
g0
(g66
g2
Ntp222
Rp223
(dp224
g29
I00
sg35
I01
sg36
I00
sg37
g201
sbsg191
g0
(g71
g2
Ntp225
Rp226
(dp227
g29
I00
sg35
I01
sg36
I00
sg37
F2.5
sbsg192
g0
(g71
g2
Ntp228
Rp229
(dp230
g29
I00
sg35
I01
sg36
I00
sg37
F2.0
sbsg193
g0
(g31
g2
Ntp231
Rp232
(dp233
g29
I00
sg35
I01
sg36
I00
sg37
I01
sbsg194
g0
(g71
g2
Ntp234
Rp235
(dp236
g29
I00
sg35
I01
sg36
I00
sg37
F1.0
sbsbatp237
Rp238
(dp239
g29
I00
sg35
I01
sg36
I00
sV_nPerLine
p240
I1
sbsg27
g0
(g31
g2
Ntp241
Rp242
(dp243
g29
I00
sg35
I01
sg36
I00
sg37
I00
sbsg28
g0
(g38
g2
Ntp244
Rp245
(dp246
g29
I00
sg35
I01
sg36
I00
sg42
g45
sg44
g45
sg46
g45
sbsV_filename
p247
V/cvmfs/cms.cern.ch/el8_amd64_gcc12/cms/cmssw/CMSSW_14_0_10/src/RecoVertex/PrimaryVertexProducer/python/OfflinePrimaryVertices_cfi.py
p248
sV_lineNumber
p249
I3
sV_Labelable__label
p250
g12
sbssV_Process__switchproducers
p251
(dp252
sV_Process__source
p253
g0
(cFWCore.ParameterSet.Modules
Source
p254
g2
Ntp255
Rp256
(dp257
g17
VPoolSource
p258
sg19
(lp259
VfileNames
p260
aVsecondaryFileNames
p261
asg29
I00
sg30
Nsg260
g0
(cFWCore.ParameterSet.Types
vstring
p262
g184
(lp263
V/store/data/Run2022A/JetHT/MINIAOD/10Dec2022-v2/40000/f6aefde1-32d8-4f3c-b13c-863c9d8583ab.root
p264
atp265
Rp266
(dp267
g29
I00
sg35
I00
sg36
I00
sg240
I1
sbsg36
I00
sg261
g0
(g262
g184
(lp268
tp269
Rp270
(dp271
g29
I00
sg35
I00
sg36
I00
sg240
I1
sbsg247
V/cvmfs/cms.cern.ch/el8_amd64_gcc12/cms/cmssw/CMSSW_14_0_10/src/FWCore/ParameterSet/python/Modules.py
p272
sg249
I195
sbsV_Process__looper
p273
NsV_Process__subProcesses
p274
(lp275
sV_Process__schedule
p276
NsV_Process__analyzers
p277
(dp278
Vresiduals
p279
g0
(cFWCore.ParameterSet.Modules
EDAnalyzer
p280
g2
Ntp281
Rp282
(dp283
g17
VResiduals
p284
sg19
(lp285
VRunOnData
p286
aVBeamSpotLabel
p287
aVBeamSpotConfig
p288
aVAddLostTracks
p289
aVRhoLabel
p290
aVTriggerResultsLabel
p291
aVtrackProducer
p292
ag24
ag25
aVVxFitterParameters
p293
aVVxFitterBSParameters
p294
aVpuInfoLabel
p295
ag22
aVLostTrackLabel
p296
aVTkMinPt
p297
aVTkMinXLayers
p298
aVTkMaxMissedOuterLayers
p299
aVTkMaxMissedInnerLayers
p300
aVVertexLabel
p301
aVVtxTracksSizeMin
p302
aVVtxTracksSizeMax
p303
aVPFJetsLabel
p304
aVEventScale
p305
aVTrackScale
p306
aVstageL1Trigger
p307
asg29
I00
sg30
Nsg286
g0
(g31
g2
Ntp308
Rp309
(dp310
g29
I00
sg35
I01
sg36
I01
sg37
I01
sbsg36
I01
sg287
g0
(g38
g2
Ntp311
Rp312
(dp313
g29
I00
sg35
I01
sg36
I00
sg42
g50
sg44
g45
sg46
g45
sbsg288
g0
(g66
g2
Ntp314
Rp315
(dp316
g29
I00
sg35
I01
sg36
I01
sg37
g221
sbsg289
g0
(g31
g2
Ntp317
Rp318
(dp319
g29
I00
sg35
I01
sg36
I01
sg37
I01
sbsg290
g0
(g38
g2
Ntp320
Rp321
(dp322
g29
I00
sg35
I01
sg36
I00
sg42
VfixedGridRhoFastjetAll
p323
sg44
g45
sg46
g45
sbsg291
g0
(g38
g2
Ntp324
Rp325
(dp326
g29
I00
sg35
I01
sg36
I00
sg42
VTriggerResults
p327
sg44
g45
sg46
VHLT
p328
sbsg292
g0
(g38
g2
Ntp329
Rp330
(dp331
g29
I00
sg35
I00
sg36
I00
sg42
VlostTracks
p332
sg44
g45
sg46
g45
sbsg24
g0
(g51
g2
Ntp333
Rp334
(dp335
g29
I00
sg35
I01
sg36
I00
sg19
(lp336
g56
ag57
ag58
ag59
ag60
ag61
ag62
ag63
ag64
ag65
asg30
Nsg56
g0
(g66
g2
Ntp337
Rp338
(dp339
g29
I00
sg35
I01
sg36
I00
sg37
g70
sbsg57
g0
(g71
g2
Ntp340
Rp341
(dp342
g29
I00
sg35
I01
sg36
I00
sg37
F10.0
sbsg58
g0
(g75
g2
Ntp343
Rp344
(dp345
g29
I00
sg35
I01
sg36
I00
sg37
I2
sbsg59
g0
(g75
g2
Ntp346
Rp347
(dp348
g29
I00
sg35
I01
sg36
I00
sg37
I5
sbsg60
g0
(g71
g2
Ntp349
Rp350
(dp351
g29
I00
sg35
I01
sg36
I00
sg37
F4.0
sbsg61
g0
(g71
g2
Ntp352
Rp353
(dp354
g29
I00
sg35
I01
sg36
I00
sg37
F1.0
sbsg62
g0
(g71
g2
Ntp355
Rp356
(dp357
g29
I00
sg35
I01
sg36
I00
sg37
F1.0
sbsg63
g0
(g71
g2
Ntp358
Rp359
(dp360
g29
I00
sg35
I01
sg36
I00
sg37
F0.0
sbsg64
g0
(g71
g2
Ntp361
Rp362
(dp363
g29
I00
sg35
I01
sg36
I00
sg37
F5.0
sbsg65
g0
(g66
g2
Ntp364
Rp365
(dp366
g29
I00
sg35
I01
sg36
I00
sg37
g100
sbsbsg25
g0
(g51
g2
Ntp367
Rp368
(dp369
g29
I00
sg35
I01
sg36
I00
sg19
(lp370
g56
ag105
asg30
Nsg56
g0
(g66
g2
Ntp371
Rp372
(dp373
g29
I00
sg35
I01
sg36
I00
sg37
g109
sbsg105
g0
(g51
g2
Ntp374
Rp375
(dp376
g29
I00
sg35
I01
sg36
I00
sg19
(lp377
g114
ag115
ag116
ag117
ag118
ag119
ag120
ag121
ag122
ag123
ag124
ag125
ag126
ag127
ag128
ag129
ag130
asg30
Nsg114
g0
(g71
g2
Ntp378
Rp379
(dp380
g29
I00
sg35
I01
sg36
I00
sg37
F0.6
sbsg115
g0
(g71
g2
Ntp381
Rp382
(dp383
g29
I00
sg35
I01
sg36
I00
sg37
F4.0
sbsg116
g0
(g71
g2
Ntp384
Rp385
(dp386
g29
I00
sg35
I01
sg36
I00
sg37
F0.01
sbsg117
g0
(g71
g2
Ntp387
Rp388
(dp389
g29
I00
sg35
I01
sg36
I00
sg37
F0.001
sbsg118
g0
(g75
g2
Ntp390
Rp391
(dp392
g29
I00
sg35
I01
sg36
I00
sg37
I0
sbsg119
g0
(g71
g2
Ntp393
Rp394
(dp395
g29
I00
sg35
I01
sg36
I00
sg37
F2.0
sbsg120
g0
(g71
g2
Ntp396
Rp397
(dp398
g29
I00
sg35
I01
sg36
I00
sg37
F2.0
sbsg121
g0
(g71
g2
Ntp399
Rp400
(dp401
g29
I00
sg35
I01
sg36
I00
sg37
F0.5
sbsg122
g0
(g71
g2
Ntp402
Rp403
(dp404
g29
I00
sg35
I01
sg36
I00
sg37
F0.006
sbsg123
g0
(g71
g2
Ntp405
Rp406
(dp407
g29
I00
sg35
I01
sg36
I00
sg37
F3.0
sbsg124
g0
(g71
g2
Ntp408
Rp409
(dp410
g29
I00
sg35
I01
sg36
I00
sg37
F3.0
sbsg125
g0
(g71
g2
Ntp411
Rp412
(dp413
g29
I00
sg35
I01
sg36
I00
sg37
F0.01
sbsg126
g0
(g71
g2
Ntp414
Rp415
(dp416
g29
I00
sg35
I01
sg36
I00
sg37
F0.8
sbsg127
g0
(g71
g2
Ntp417
Rp418
(dp419
g29
I00
sg35
I01
sg36
I00
sg37
F0.0
sbsg128
g0
(g31
g2
Ntp420
Rp421
(dp422
g29
I00
sg35
I01
sg36
I00
sg37
I00
sbsg129
g0
(g176
g2
Ntp423
Rp424
(dp425
g29
I00
sg35
I01
sg36
I00
sg37
I10000
sbsg130
g0
(g71
g2
Ntp426
Rp427
(dp428
g29
I00
sg35
I01
sg36
I00
sg37
F0.0
sbsbsbsg293
g0
(g51
g2
Ntp429
Rp430
(dp431
g29
I00
sg35
I01
sg36
I00
sg19
(lp432
g56
ag192
ag194
asg30
Nsg56
g0
(g66
g2
Ntp433
Rp434
(dp435
g29
I00
sg35
I01
sg36
I00
sg37
VAVF
p436
sbsg192
g0
(g71
g2
Ntp437
Rp438
(dp439
g29
I00
sg35
I01
sg36
I00
sg37
F0.0
sbsg194
g0
(g71
g2
Ntp440
Rp441
(dp442
g29
I00
sg35
I01
sg36
I00
sg37
F1.0
sbsbsg294
g0
(g51
g2
Ntp443
Rp444
(dp445
g29
I00
sg35
I01
sg36
I00
sg19
(lp446
g56
ag192
ag194
asg30
Nsg56
g0
(g66
g2
Ntp447
Rp448
(dp449
g29
I00
sg35
I01
sg36
I00
sg37
VAVFBS
p450
sbsg192
g0
(g71
g2
Ntp451
Rp452
(dp453
g29
I00
sg35
I01
sg36
I00
sg37
F2.0
sbsg194
g0
(g71
g2
Ntp454
Rp455
(dp456
g29
I00
sg35
I01
sg36
I00
sg37
F1.0
sbsbsg295
g0
(g38
g2
Ntp457
Rp458
(dp459
g29
I00
sg35
I01
sg36
I00
sg42
VslimmedAddPileupInfo
p460
sg44
g45
sg46
g45
sbsg22
g0
(g38
g2
Ntp461
Rp462
(dp463
g29
I00
sg35
I01
sg36
I00
sg42
VpackedPFCandidates
p464
sg44
g45
sg46
g45
sbsg296
g0
(g38
g2
Ntp465
Rp466
(dp467
g29
I00
sg35
I01
sg36
I00
sg42
g332
sg44
g45
sg46
g45
sbsg297
g0
(g71
g2
Ntp468
Rp469
(dp470
g29
I00
sg35
I01
sg36
I00
sg37
F0.0
sbsg298
g0
(g75
g2
Ntp471
Rp472
(dp473
g29
I00
sg35
I01
sg36
I00
sg37
I7
sbsg299
g0
(g75
g2
Ntp474
Rp475
(dp476
g29
I00
sg35
I01
sg36
I00
sg37
I4
sbsg300
g0
(g75
g2
Ntp477
Rp478
(dp479
g29
I00
sg35
I01
sg36
I00
sg37
I0
sbsg301
g0
(g38
g2
Ntp480
Rp481
(dp482
g29
I00
sg35
I01
sg36
I00
sg42
VofflineSlimmedPrimaryVertices
p483
sg44
g45
sg46
g45
sbsg302
g0
(g75
g2
Ntp484
Rp485
(dp486
g29
I00
sg35
I01
sg36
I00
sg37
I2
sbsg303
g0
(g75
g2
Ntp487
Rp488
(dp489
g29
I00
sg35
I01
sg36
I00
sg37
I1000
sbsg304
g0
(g38
g2
Ntp490
Rp491
(dp492
g29
I00
sg35
I01
sg36
I00
sg42
VslimmedJets
p493
sg44
g45
sg46
g45
sbsg305
g0
(g75
g2
Ntp494
Rp495
(dp496
g29
I00
sg35
I01
sg36
I00
sg37
I100
sbsg306
g0
(g75
g2
Ntp497
Rp498
(dp499
g29
I00
sg35
I01
sg36
I00
sg37
I1
sbsg247
V/user/kakang/IPres/CMSSW_14_0_10/src/TrackingAnalysis/EDAnalyzers/python/residuals_cfi.py
p500
sg249
I3
sg250
g279
sg307
g0
(g176
g2
Ntp501
Rp502
(dp503
g29
I00
sg35
I01
sg36
I00
sg37
I0
sbsbssV_Process__outputmodules
p504
(dp505
sV_Process__paths
p506
g0
(cFWCore.ParameterSet.DictTypes
SortedKeysDict
p507
c__builtin__
dict
p508
(dp509
Vp
p510
g0
(cFWCore.ParameterSet.SequenceTypes
Path
p511
g2
Ntp512
Rp513
(dp514
g29
I00
sV_seq
p515
g0
(cFWCore.ParameterSet.SequenceTypes
_SequenceCollection
p516
g2
Ntp517
Rp518
(dp519
V_collection
p520
(lp521
g282
asbsg36
I00
sV_tasks
p522
g0
(cFWCore.ParameterSet.OrderedSet
OrderedSet
p523
g2
Ntp524
Rp525
(dp526
Vend
p527
(lp528
Nag528
ag528
asVmap
p529
(dp530
sbsg250
g510
sbstp531
Rp532
(dp533
Vlist
p534
(lp535
g510
asbsV_Process__endpaths
p536
g0
(g507
g508
(dp537
tp538
Rp539
(dp540
g534
(lp541
sbsV_Process__finalpaths
p542
g0
(g507
g508
(dp543
tp544
Rp545
(dp546
g534
(lp547
sbsV_Process__sequences
p548
(dp549
sV_Process__tasks
p550
(dp551
sV_Process__conditionaltasks
p552
(dp553
sV_Process__services
p554
(dp555
VMessageLogger
p556
g0
(cFWCore.ParameterSet.Modules
Service
p557
g2
Ntp558
Rp559
(dp560
g17
g556
sg19
(lp561
VsuppressWarning
p562
aVsuppressFwkInfo
p563
aVsuppressInfo
p564
aVsuppressDebug
p565
aVdebugModules
p566
aVcout
p567
aVdefault
p568
aVcerr
p569
aVfiles
p570
asg29
I00
sg30
g0
(cFWCore.ParameterSet.Types
_OptionalParameter
p571
g2
Ntp572
Rp573
(dp574
g29
I00
sg35
I00
sg36
I00
sV_ProxyParameter__type
p575
g0
(cFWCore.ParameterSet.Types
_PSetTemplate
p576
g2
Ntp577
Rp578
(dp579
V_pset
p580
g0
(g51
g2
Ntp581
Rp582
(dp583
g29
I00
sg35
I01
sg36
I00
sg19
(lp584
VreportEvery
p585
aVlimit
p586
aVtimespan
p587
asg30
Nsg585
g0
(g75
g2
Ntp588
Rp589
(dp590
g29
I00
sg35
I00
sg36
I00
sg37
I1
sbsg586
g0
(g571
g2
Ntp591
Rp592
(dp593
g29
I00
sg35
I00
sg36
I00
sg575
g75
sV_ProxyParameter__value
p594
Nsbsg587
g0
(g571
g2
Ntp595
Rp596
(dp597
g29
I00
sg35
I00
sg36
I00
sg575
g75
sg594
NsbsbsV_PSetTemplate__value
p598
Nsbsg594
Nsbsg562
g0
(g262
g184
(lp599
tp600
Rp601
(dp602
g29
I00
sg35
I00
sg36
I00
sg240
I1
sbsg36
I00
sg563
g0
(g262
g184
(lp603
tp604
Rp605
(dp606
g29
I00
sg35
I00
sg36
I00
sg240
I1
sbsg564
g0
(g262
g184
(lp607
tp608
Rp609
(dp610
g29
I00
sg35
I00
sg36
I00
sg240
I1
sbsg565
g0
(g262
g184
(lp611
tp612
Rp613
(dp614
g29
I00
sg35
I00
sg36
I00
sg240
I1
sbsg566
g0
(g262
g184
(lp615
tp616
Rp617
(dp618
g29
I00
sg35
I00
sg36
I00
sg240
I1
sbsg567
g0
(g51
g2
Ntp619
Rp620
(dp621
g29
I00
sg35
I00
sg36
I00
sg19
(lp622
VnoLineBreaks
p623
aVnoTimeStamps
p624
aVlineLength
p625
aVthreshold
p626
aVstatisticsThreshold
p627
aVenableStatistics
p628
aVresetStatistics
p629
aVenable
p630
asg30
g573
sg623
g0
(g571
g2
Ntp631
Rp632
(dp633
g29
I00
sg35
I00
sg36
I00
sg575
g31
sg594
Nsbsg624
g0
(g571
g2
Ntp634
Rp635
(dp636
g29
I00
sg35
I00
sg36
I00
sg575
g31
sg594
Nsbsg625
g0
(g571
g2
Ntp637
Rp638
(dp639
g29
I00
sg35
I00
sg36
I00
sg575
g75
sg594
Nsbsg626
g0
(g571
g2
Ntp640
Rp641
(dp642
g29
I00
sg35
I00
sg36
I00
sg575
g66
sg594
Nsbsg627
g0
(g571
g2
Ntp643
Rp644
(dp645
g29
I00
sg35
I00
sg36
I00
sg575
g66
sg594
Nsbsg628
g0
(g31
g2
Ntp646
Rp647
(dp648
g29
I00
sg35
I00
sg36
I00
sg37
I00
sbsg629
g0
(g31
g2
Ntp649
Rp650
(dp651
g29
I00
sg35
I00
sg36
I00
sg37
I00
sbsg630
g0
(g31
g2
Ntp652
Rp653
(dp654
g29
I00
sg35
I00
sg36
I00
sg37
I00
sbsbsg568
g0
(g51
g2
Ntp655
Rp656
(dp657
g29
I00
sg35
I00
sg36
I00
sg19
(lp658
g585
ag586
ag587
ag623
ag624
ag625
ag626
ag627
asg30
g573
sg585
g0
(g75
g2
Ntp659
Rp660
(dp661
g29
I00
sg35
I00
sg36
I00
sg37
I1
sbsg586
g0
(g571
g2
Ntp662
Rp663
(dp664
g29
I00
sg35
I00
sg36
I00
sg575
g75
sg594
Nsbsg587
g0
(g571
g2
Ntp665
Rp666
(dp667
g29
I00
sg35
I00
sg36
I00
sg575
g75
sg594
Nsbsg623
g0
(g31
g2
Ntp668
Rp669
(dp670
g29
I00
sg35
I00
sg36
I00
sg37
I00
sbsg624
g0
(g31
g2
Ntp671
Rp672
(dp673
g29
I00
sg35
I00
sg36
I00
sg37
I00
sbsg625
g0
(g75
g2
Ntp674
Rp675
(dp676
g29
I00
sg35
I00
sg36
I00
sg37
I80
sbsg626
g0
(g66
g2
Ntp677
Rp678
(dp679
g29
I00
sg35
I00
sg36
I00
sg37
VINFO
p680
sbsg627
g0
(g66
g2
Ntp681
Rp682
(dp683
g29
I00
sg35
I00
sg36
I00
sg37
g680
sbsbsg569
g0
(g51
g2
Ntp684
Rp685
(dp686
g29
I00
sg35
I00
sg36
I01
sg19
(lp687
g623
ag624
ag625
ag626
ag627
ag630
ag628
ag629
ag680
aVFwkReport
p688
ag568
aVRoot_NoDictionary
p689
aVFwkSummary
p690
asg30
g573
sg623
g0
(g571
g2
Ntp691
Rp692
(dp693
g29
I00
sg35
I00
sg36
I00
sg575
g31
sg594
Nsbsg624
g0
(g31
g2
Ntp694
Rp695
(dp696
g29
I00
sg35
I00
sg36
I00
sg37
I00
sbsg625
g0
(g571
g2
Ntp697
Rp698
(dp699
g29
I00
sg35
I00
sg36
I00
sg575
g75
sg594
Nsbsg626
g0
(g66
g2
Ntp700
Rp701
(dp702
g29
I00
sg35
I00
sg36
I00
sg37
g680
sbsg627
g0
(g66
g2
Ntp703
Rp704
(dp705
g29
I00
sg35
I00
sg36
I00
sg37
VWARNING
p706
sbsg630
g0
(g31
g2
Ntp707
Rp708
(dp709
g29
I00
sg35
I00
sg36
I00
sg37
I01
sbsg628
g0
(g31
g2
Ntp710
Rp711
(dp712
g29
I00
sg35
I00
sg36
I00
sg37
I00
sbsg629
g0
(g31
g2
Ntp713
Rp714
(dp715
g29
I00
sg35
I00
sg36
I00
sg37
I00
sbsg680
g0
(g51
g2
Ntp716
Rp717
(dp718
g29
I00
sg35
I00
sg36
I00
sg19
(lp719
g586
asg30
Nsg586
g0
(g75
g2
Ntp720
Rp721
(dp722
g29
I00
sg35
I00
sg36
I00
sg37
I0
sbsbsg688
g0
(g51
g2
Ntp723
Rp724
(dp725
g29
I00
sg35
I00
sg36
I00
sg19
(lp726
g585
asg30
Nsg585
g0
(g75
g2
Ntp727
Rp728
(dp729
g29
I00
sg35
I00
sg36
I00
sg37
I1
sbsbsg568
g0
(g51
g2
Ntp730
Rp731
(dp732
g29
I00
sg35
I00
sg36
I00
sg19
(lp733
g586
asg30
Nsg586
g0
(g75
g2
Ntp734
Rp735
(dp736
g29
I00
sg35
I00
sg36
I00
sg37
I10000000
sbsbsg689
g0
(g51
g2
Ntp737
Rp738
(dp739
g29
I00
sg35
I00
sg36
I00
sg19
(lp740
g586
asg30
Nsg586
g0
(g75
g2
Ntp741
Rp742
(dp743
g29
I00
sg35
I00
sg36
I00
sg37
I0
sbsbsg690
g0
(g51
g2
Ntp744
Rp745
(dp746
g29
I00
sg35
I00
sg36
I00
sg19
(lp747
g585
ag586
asg30
Nsg585
g0
(g75
g2
Ntp748
Rp749
(dp750
g29
I00
sg35
I00
sg36
I00
sg37
I1
sbsg586
g0
(g75
g2
Ntp751
Rp752
(dp753
g29
I00
sg35
I00
sg36
I00
sg37
I10000000
sbsbsbsg570
g0
(g51
g2
Ntp754
Rp755
(dp756
g29
I00
sg35
I00
sg36
I00
sg19
(lp757
sg30
g0
(g571
g2
Ntp758
Rp759
(dp760
g29
I00
sg35
I00
sg36
I00
sg575
g0
(g576
g2
Ntp761
Rp762
(dp763
g580
g0
(g51
g2
Ntp764
Rp765
(dp766
g29
I00
sg35
I01
sg36
I00
sg19
(lp767
g623
ag624
ag625
ag626
ag627
ag628
ag629
aVfilename
p768
aVextension
p769
aVoutput
p770
asg30
g573
sg623
g0
(g571
g2
Ntp771
Rp772
(dp773
g29
I00
sg35
I00
sg36
I00
sg575
g31
sg594
Nsbsg624
g0
(g571
g2
Ntp774
Rp775
(dp776
g29
I00
sg35
I00
sg36
I00
sg575
g31
sg594
Nsbsg625
g0
(g571
g2
Ntp777
Rp778
(dp779
g29
I00
sg35
I00
sg36
I00
sg575
g75
sg594
Nsbsg626
g0
(g571
g2
Ntp780
Rp781
(dp782
g29
I00
sg35
I00
sg36
I00
sg575
g66
sg594
Nsbsg627
g0
(g571
g2
Ntp783
Rp784
(dp785
g29
I00
sg35
I00
sg36
I00
sg575
g66
sg594
Nsbsg628
g0
(g31
g2
Ntp786
Rp787
(dp788
g29
I00
sg35
I00
sg36
I00
sg37
I00
sbsg629
g0
(g31
g2
Ntp789
Rp790
(dp791
g29
I00
sg35
I00
sg36
I00
sg37
I00
sbsg768
g0
(g571
g2
Ntp792
Rp793
(dp794
g29
I00
sg35
I00
sg36
I00
sg575
g66
sg594
Nsbsg769
g0
(g571
g2
Ntp795
Rp796
(dp797
g29
I00
sg35
I00
sg36
I00
sg575
g66
sg594
Nsbsg770
g0
(g571
g2
Ntp798
Rp799
(dp800
g29
I00
sg35
I00
sg36
I00
sg575
g66
sg594
Nsbsbsg598
Nsbsg594
Nsbsbsg247
g272
sg249
I13
sV_inProcess
p801
I00
sbsVTFileService
p802
g0
(g557
g2
Ntp803
Rp804
(dp805
g17
g802
sg19
(lp806
VfileName
p807
aVcloseFileFast
p808
asg29
I00
sg30
Nsg807
g0
(g66
g2
Ntp809
Rp810
(dp811
g29
I00
sg35
I01
sg36
I00
sg37
Voutput.root
p812
sbsg36
I00
sg808
g0
(g31
g2
Ntp813
Rp814
(dp815
g29
I00
sg35
I00
sg36
I00
sg37
I01
sbsg247
g272
sg249
I13
sg801
I01
sbssV_Process__essources
p816
(dp817
VGlobalTag
p818
g0
(cFWCore.ParameterSet.Modules
ESSource
p819
g2
Ntp820
Rp821
(dp822
g17
VPoolDBESSource
p823
sg19
(lp824
VDBParameters
p825
aVconnect
p826
aVglobaltag
p827
aVsnapshotTime
p828
aVtoGet
p829
aVDumpStat
p830
aVReconnectEachRun
p831
aVRefreshAlways
p832
aVRefreshEachRun
p833
aVRefreshOpenIOVs
p834
aVpfnPostfix
p835
aVpfnPrefix
p836
asg29
I00
sg30
Nsg825
g0
(g51
g2
Ntp837
Rp838
(dp839
g29
I00
sg35
I01
sg36
I00
sg19
(lp840
VauthenticationPath
p841
aVauthenticationSystem
p842
aVsecurity
p843
aVmessageLevel
p844
aVconnectionTimeout
p845
asg30
Nsg841
g0
(g66
g2
Ntp846
Rp847
(dp848
g29
I00
sg35
I00
sg36
I00
sg37
g45
sbsg842
g0
(g75
g2
Ntp849
Rp850
(dp851
g29
I00
sg35
I00
sg36
I00
sg37
I0
sbsg843
g0
(g66
g2
Ntp852
Rp853
(dp854
g29
I00
sg35
I00
sg36
I00
sg37
g45
sbsg844
g0
(g75
g2
Ntp855
Rp856
(dp857
g29
I00
sg35
I00
sg36
I00
sg37
I0
sbsg845
g0
(g75
g2
Ntp858
Rp859
(dp860
g29
I00
sg35
I00
sg36
I00
sg37
I0
sbsbsg36
I01
sg826
g0
(g66
g2
Ntp861
Rp862
(dp863
g29
I00
sg35
I01
sg36
I00
sg37
Vfrontier://FrontierProd/CMS_CONDITIONS
p864
sbsg827
g0
(g66
g2
Ntp865
Rp866
(dp867
g29
I00
sg35
I01
sg36
I01
sg37
V130X_dataRun3_v2
p868
sbsg828
g0
(g66
g2
Ntp869
Rp870
(dp871
g29
I00
sg35
I01
sg36
I00
sg37
g45
sbsg829
g0
(g183
g184
(lp872
tp873
Rp874
(dp875
g29
I00
sg35
I01
sg36
I00
sg240
I1
sbsg830
g0
(g31
g2
Ntp876
Rp877
(dp878
g29
I00
sg35
I00
sg36
I00
sg37
I00
sbsg831
g0
(g31
g2
Ntp879
Rp880
(dp881
g29
I00
sg35
I00
sg36
I00
sg37
I00
sbsg832
g0
(g31
g2
Ntp882
Rp883
(dp884
g29
I00
sg35
I00
sg36
I00
sg37
I00
sbsg833
g0
(g31
g2
Ntp885
Rp886
(dp887
g29
I00
sg35
I00
sg36
I00
sg37
I00
sbsg834
g0
(g31
g2
Ntp888
Rp889
(dp890
g29
I00
sg35
I00
sg36
I00
sg37
I00
sbsg835
g0
(g66
g2
Ntp891
Rp892
(dp893
g29
I00
sg35
I00
sg36
I00
sg37
g45
sbsg836
g0
(g66
g2
Ntp894
Rp895
(dp896
g29
I00
sg35
I00
sg36
I00
sg37
g45
sbsg247
V/cvmfs/cms.cern.ch/el8_amd64_gcc12/cms/cmssw/CMSSW_14_0_10/src/CondCore/ESSources/python/CondDBESSource_cfi.py
p897
sg249
I8
sg250
g818
sbsVHcalTimeSlewEP
p898
g0
(g819
g2
Ntp899
Rp900
(dp901
g17
g898
sg19
(lp902
VappendToDataLabel
p903
aVtimeSlewParametersM2
p904
aVtimeSlewParametersM3
p905
asg29
I00
sg30
Nsg903
g0
(g66
g2
Ntp906
Rp907
(dp908
g29
I00
sg35
I01
sg36
I00
sg37
VHBHE
p909
sbsg36
I00
sg904
g0
(g183
g184
(lp910
g0
(g51
g2
Ntp911
Rp912
(dp913
g29
I00
sg35
I01
sg36
I00
sg19
(lp914
Vtzero
p915
aVslope
p916
aVtmax
p917
asg30
Nsg915
g0
(g71
g2
Ntp918
Rp919
(dp920
g29
I00
sg35
I01
sg36
I00
sg37
F23.960177
sbsg916
g0
(g71
g2
Ntp921
Rp922
(dp923
g29
I00
sg35
I01
sg36
I00
sg37
F-3.178648
sbsg917
g0
(g71
g2
Ntp924
Rp925
(dp926
g29
I00
sg35
I01
sg36
I00
sg37
F16.0
sbsbag0
(g51
g2
Ntp927
Rp928
(dp929
g29
I00
sg35
I01
sg36
I00
sg19
(lp930
g915
ag916
ag917
asg30
Nsg915
g0
(g71
g2
Ntp931
Rp932
(dp933
g29
I00
sg35
I01
sg36
I00
sg37
F11.977461
sbsg916
g0
(g71
g2
Ntp934
Rp935
(dp936
g29
I00
sg35
I01
sg36
I00
sg37
F-1.5610227
sbsg917
g0
(g71
g2
Ntp937
Rp938
(dp939
g29
I00
sg35
I01
sg36
I00
sg37
F10.0
sbsbag0
(g51
g2
Ntp940
Rp941
(dp942
g29
I00
sg35
I01
sg36
I00
sg19
(lp943
g915
ag916
ag917
asg30
Nsg915
g0
(g71
g2
Ntp944
Rp945
(dp946
g29
I00
sg35
I01
sg36
I00
sg37
F9.109694
sbsg916
g0
(g71
g2
Ntp947
Rp948
(dp949
g29
I00
sg35
I01
sg36
I00
sg37
F-1.075824
sbsg917
g0
(g71
g2
Ntp950
Rp951
(dp952
g29
I00
sg35
I01
sg36
I00
sg37
F6.25
sbsbatp953
Rp954
(dp955
g29
I00
sg35
I01
sg36
I00
sg240
I1
sbsg905
g0
(g183
g184
(lp956
g0
(g51
g2
Ntp957
Rp958
(dp959
g29
I00
sg35
I01
sg36
I00
sg19
(lp960
Vcap
p961
aVtspar0
p962
aVtspar1
p963
aVtspar2
p964
aVtspar0_siPM
p965
aVtspar1_siPM
p966
aVtspar2_siPM
p967
asg30
Nsg961
g0
(g71
g2
Ntp968
Rp969
(dp970
g29
I00
sg35
I01
sg36
I00
sg37
F6.0
sbsg962
g0
(g71
g2
Ntp971
Rp972
(dp973
g29
I00
sg35
I01
sg36
I00
sg37
F12.2999
sbsg963
g0
(g71
g2
Ntp974
Rp975
(dp976
g29
I00
sg35
I01
sg36
I00
sg37
F-2.19142
sbsg964
g0
(g71
g2
Ntp977
Rp978
(dp979
g29
I00
sg35
I01
sg36
I00
sg37
F0.0
sbsg965
g0
(g71
g2
Ntp980
Rp981
(dp982
g29
I00
sg35
I01
sg36
I00
sg37
F0.0
sbsg966
g0
(g71
g2
Ntp983
Rp984
(dp985
g29
I00
sg35
I01
sg36
I00
sg37
F0.0
sbsg967
g0
(g71
g2
Ntp986
Rp987
(dp988
g29
I00
sg35
I01
sg36
I00
sg37
F0.0
sbsbag0
(g51
g2
Ntp989
Rp990
(dp991
g29
I00
sg35
I01
sg36
I00
sg19
(lp992
g961
ag962
ag963
ag964
ag965
ag966
ag967
asg30
Nsg961
g0
(g71
g2
Ntp993
Rp994
(dp995
g29
I00
sg35
I01
sg36
I00
sg37
F6.0
sbsg962
g0
(g71
g2
Ntp996
Rp997
(dp998
g29
I00
sg35
I01
sg36
I00
sg37
F15.5
sbsg963
g0
(g71
g2
Ntp999
Rp1000
(dp1001
g29
I00
sg35
I01
sg36
I00
sg37
F-3.2
sbsg964
g0
(g71
g2
Ntp1002
Rp1003
(dp1004
g29
I00
sg35
I01
sg36
I00
sg37
F32.0
sbsg965
g0
(g71
g2
Ntp1005
Rp1006
(dp1007
g29
I00
sg35
I01
sg36
I00
sg37
F0.0
sbsg966
g0
(g71
g2
Ntp1008
Rp1009
(dp1010
g29
I00
sg35
I01
sg36
I00
sg37
F0.0
sbsg967
g0
(g71
g2
Ntp1011
Rp1012
(dp1013
g29
I00
sg35
I01
sg36
I00
sg37
F0.0
sbsbag0
(g51
g2
Ntp1014
Rp1015
(dp1016
g29
I00
sg35
I01
sg36
I00
sg19
(lp1017
g961
ag962
ag963
ag964
ag965
ag966
ag967
asg30
Nsg961
g0
(g71
g2
Ntp1018
Rp1019
(dp1020
g29
I00
sg35
I01
sg36
I00
sg37
F6.0
sbsg962
g0
(g71
g2
Ntp1021
Rp1022
(dp1023
g29
I00
sg35
I01
sg36
I00
sg37
F12.2999
sbsg963
g0
(g71
g2
Ntp1024
Rp1025
(dp1026
g29
I00
sg35
I01
sg36
I00
sg37
F-2.19142
sbsg964
g0
(g71
g2
Ntp1027
Rp1028
(dp1029
g29
I00
sg35
I01
sg36
I00
sg37
F0.0
sbsg965
g0
(g71
g2
Ntp1030
Rp1031
(dp1032
g29
I00
sg35
I01
sg36
I00
sg37
F0.0
sbsg966
g0
(g71
g2
Ntp1033
Rp1034
(dp1035
g29
I00
sg35
I01
sg36
I00
sg37
F0.0
sbsg967
g0
(g71
g2
Ntp1036
Rp1037
(dp1038
g29
I00
sg35
I01
sg36
I00
sg37
F0.0
sbsbag0
(g51
g2
Ntp1039
Rp1040
(dp1041
g29
I00
sg35
I01
sg36
I00
sg19
(lp1042
g961
ag962
ag963
ag964
ag965
ag966
ag967
asg30
Nsg961
g0
(g71
g2
Ntp1043
Rp1044
(dp1045
g29
I00
sg35
I01
sg36
I00
sg37
F6.0
sbsg962
g0
(g71
g2
Ntp1046
Rp1047
(dp1048
g29
I00
sg35
I01
sg36
I00
sg37
F12.2999
sbsg963
g0
(g71
g2
Ntp1049
Rp1050
(dp1051
g29
I00
sg35
I01
sg36
I00
sg37
F-2.19142
sbsg964
g0
(g71
g2
Ntp1052
Rp1053
(dp1054
g29
I00
sg35
I01
sg36
I00
sg37
F0.0
sbsg965
g0
(g71
g2
Ntp1055
Rp1056
(dp1057
g29
I00
sg35
I01
sg36
I00
sg37
F0.0
sbsg966
g0
(g71
g2
Ntp1058
Rp1059
(dp1060
g29
I00
sg35
I01
sg36
I00
sg37
F0.0
sbsg967
g0
(g71
g2
Ntp1061
Rp1062
(dp1063
g29
I00
sg35
I01
sg36
I00
sg37
F0.0
sbsbatp1064
Rp1065
(dp1066
g29
I00
sg35
I01
sg36
I00
sg240
I1
sbsg247
V/cvmfs/cms.cern.ch/el8_amd64_gcc12/cms/cmssw/CMSSW_14_0_10/src/CalibCalorimetry/HcalPlugins/python/HcalTimeSlew_cff.py
p1067
sg249
I3
sg250
g898
sbsVes_hardcode
p1068
g0
(g819
g2
Ntp1069
Rp1070
(dp1071
g17
VHcalHardcodeCalibrations
p1072
sg19
(lp1073
g829
aViLumi
p1074
aVHBRecalibration
p1075
aVHBreCalibCutoff
p1076
aVHBmeanenergies
p1077
aVHERecalibration
p1078
aVHEreCalibCutoff
p1079
aVHEmeanenergies
p1080
aVHFRecalibration
p1081
aVHFRecalParameterBlock
p1082
aVGainWidthsForTrigPrims
p1083
aVuseHBUpgrade
p1084
aVuseHEUpgrade
p1085
aVuseHFUpgrade
p1086
aVuseHOUpgrade
p1087
aVtestHFQIE10
p1088
aVtestHEPlan1
p1089
aVkillHE
p1090
aVuseLayer0Weight
p1091
aVuseIeta18depth1
p1092
aVhb
p1093
aVhe
p1094
aVhf
p1095
aVho
p1096
aVhbUpgrade
p1097
aVheUpgrade
p1098
aVhfUpgrade
p1099
aVSiPMCharacteristics
p1100
asg29
I00
sg30
Nsg829
g0
(g262
g184
(lp1101
VGainWidths
p1102
atp1103
Rp1104
(dp1105
g29
I00
sg35
I00
sg36
I00
sg240
I1
sbsg36
I00
sg1074
g0
(g71
g2
Ntp1106
Rp1107
(dp1108
g29
I00
sg35
I01
sg36
I00
sg37
F-1.0
sbsg1075
g0
(g31
g2
Ntp1109
Rp1110
(dp1111
g29
I00
sg35
I01
sg36
I00
sg37
I00
sbsg1076
g0
(g71
g2
Ntp1112
Rp1113
(dp1114
g29
I00
sg35
I01
sg36
I00
sg37
F20.0
sbsg1077
g0
(cFWCore.ParameterSet.Types
FileInPath
p1115
g2
Ntp1116
Rp1117
(dp1118
g29
I00
sg35
I01
sg36
I00
sg37
VCalibCalorimetry/HcalPlugins/data/meanenergiesHB.txt
p1119
sbsg1078
g0
(g31
g2
Ntp1120
Rp1121
(dp1122
g29
I00
sg35
I01
sg36
I00
sg37
I00
sbsg1079
g0
(g71
g2
Ntp1123
Rp1124
(dp1125
g29
I00
sg35
I01
sg36
I00
sg37
F20.0
sbsg1080
g0
(g1115
g2
Ntp1126
Rp1127
(dp1128
g29
I00
sg35
I01
sg36
I00
sg37
VCalibCalorimetry/HcalPlugins/data/meanenergiesHE.txt
p1129
sbsg1081
g0
(g31
g2
Ntp1130
Rp1131
(dp1132
g29
I00
sg35
I01
sg36
I00
sg37
I00
sbsg1082
g0
(g51
g2
Ntp1133
Rp1134
(dp1135
g29
I00
sg35
I01
sg36
I00
sg19
(lp1136
VHFdepthOneParameterA
p1137
aVHFdepthOneParameterB
p1138
aVHFdepthTwoParameterA
p1139
aVHFdepthTwoParameterB
p1140
asg30
Nsg1137
g0
(cFWCore.ParameterSet.Types
vdouble
p1141
g184
(lp1142
F0.004123
aF0.00602
aF0.008201
aF0.010489
aF0.013379
aF0.016997
aF0.021464
aF0.027371
aF0.034195
aF0.044807
aF0.058939
aF0.125497
atp1143
Rp1144
(dp1145
g29
I00
sg35
I01
sg36
I00
sbsg1138
g0
(g1141
g184
(lp1146
F-4e-06
aF-2e-06
aF0.0
aF4e-06
aF1.5e-05
aF2.6e-05
aF6.3e-05
aF8.4e-05
aF0.00016
aF0.000107
aF0.000425
aF0.000209
atp1147
Rp1148
(dp1149
g29
I00
sg35
I01
sg36
I00
sbsg1139
g0
(g1141
g184
(lp1150
F0.002861
aF0.004168
aF0.0064
aF0.008388
aF0.011601
aF0.014425
aF0.018633
aF0.023232
aF0.028274
aF0.035447
aF0.051579
aF0.086593
atp1151
Rp1152
(dp1153
g29
I00
sg35
I01
sg36
I00
sbsg1140
g0
(g1141
g184
(lp1154
F-2e-06
aF-0.0
aF-7e-06
aF-6e-06
aF-2e-06
aF1e-06
aF1.9e-05
aF3.1e-05
aF6.7e-05
aF1.2e-05
aF0.000157
aF-3e-06
atp1155
Rp1156
(dp1157
g29
I00
sg35
I01
sg36
I00
sbsg250
g1082
sbsg1083
g0
(g31
g2
Ntp1158
Rp1159
(dp1160
g29
I00
sg35
I01
sg36
I00
sg37
I00
sbsg1084
g0
(g31
g2
Ntp1161
Rp1162
(dp1163
g29
I00
sg35
I01
sg36
I00
sg37
I00
sbsg1085
g0
(g31
g2
Ntp1164
Rp1165
(dp1166
g29
I00
sg35
I01
sg36
I00
sg37
I00
sbsg1086
g0
(g31
g2
Ntp1167
Rp1168
(dp1169
g29
I00
sg35
I01
sg36
I00
sg37
I00
sbsg1087
g0
(g31
g2
Ntp1170
Rp1171
(dp1172
g29
I00
sg35
I01
sg36
I00
sg37
I01
sbsg1088
g0
(g31
g2
Ntp1173
Rp1174
(dp1175
g29
I00
sg35
I01
sg36
I00
sg37
I00
sbsg1089
g0
(g31
g2
Ntp1176
Rp1177
(dp1178
g29
I00
sg35
I01
sg36
I00
sg37
I00
sbsg1090
g0
(g31
g2
Ntp1179
Rp1180
(dp1181
g29
I00
sg35
I01
sg36
I00
sg37
I00
sbsg1091
g0
(g31
g2
Ntp1182
Rp1183
(dp1184
g29
I00
sg35
I01
sg36
I00
sg37
I00
sbsg1092
g0
(g31
g2
Ntp1185
Rp1186
(dp1187
g29
I00
sg35
I01
sg36
I00
sg37
I01
sbsg1093
g0
(g51
g2
Ntp1188
Rp1189
(dp1190
g29
I00
sg35
I01
sg36
I00
sg19
(lp1191
Vpedestal
p1192
aVpedestalWidth
p1193
aVgain
p1194
aVgainWidth
p1195
aVzsThreshold
p1196
aVqieType
p1197
aVqieOffset
p1198
aVqieSlope
p1199
aVmcShape
p1200
aVrecoShape
p1201
aVphotoelectronsToAnalog
p1202
aVdarkCurrent
p1203
aVnoiseCorrelation
p1204
aVnoiseThreshold
p1205
aVseedThreshold
p1206
aVdoRadiationDamage
p1207
asg30
Nsg1192
g0
(g71
g2
Ntp1208
Rp1209
(dp1210
g29
I00
sg35
I01
sg36
I00
sg37
F3.285
sbsg1193
g0
(g71
g2
Ntp1211
Rp1212
(dp1213
g29
I00
sg35
I01
sg36
I00
sg37
F0.809
sbsg1194
g0
(g1141
g184
(lp1214
F0.19
atp1215
Rp1216
(dp1217
g29
I00
sg35
I01
sg36
I00
sbsg1195
g0
(g1141
g184
(lp1218
F0.0
atp1219
Rp1220
(dp1221
g29
I00
sg35
I01
sg36
I00
sbsg1196
g0
(g75
g2
Ntp1222
Rp1223
(dp1224
g29
I00
sg35
I01
sg36
I00
sg37
I8
sbsg1197
g0
(g75
g2
Ntp1225
Rp1226
(dp1227
g29
I00
sg35
I01
sg36
I00
sg37
I0
sbsg1198
g0
(g1141
g184
(lp1228
F-0.49
aF1.8
aF7.2
aF37.9
atp1229
Rp1230
(dp1231
g29
I00
sg35
I01
sg36
I00
sbsg1199
g0
(g1141
g184
(lp1232
F0.912
aF0.917
aF0.922
aF0.923
atp1233
Rp1234
(dp1235
g29
I00
sg35
I01
sg36
I00
sbsg1200
g0
(g75
g2
Ntp1236
Rp1237
(dp1238
g29
I00
sg35
I01
sg36
I00
sg37
I125
sbsg1201
g0
(g75
g2
Ntp1239
Rp1240
(dp1241
g29
I00
sg35
I01
sg36
I00
sg37
I105
sbsg1202
g0
(g71
g2
Ntp1242
Rp1243
(dp1244
g29
I00
sg35
I01
sg36
I00
sg37
F0.3305
sbsg1203
g0
(g1141
g184
(lp1245
F0.0
atp1246
Rp1247
(dp1248
g29
I00
sg35
I01
sg36
I00
sbsg1204
g0
(g1141
g184
(lp1249
F0.0
atp1250
Rp1251
(dp1252
g29
I00
sg35
I01
sg36
I00
sbsg1205
g0
(g71
g2
Ntp1253
Rp1254
(dp1255
g29
I00
sg35
I01
sg36
I00
sg37
F0.0
sbsg1206
g0
(g71
g2
Ntp1256
Rp1257
(dp1258
g29
I00
sg35
I01
sg36
I00
sg37
F0.1
sbsg1207
g0
(g31
g2
Ntp1259
Rp1260
(dp1261
g29
I00
sg35
I01
sg36
I00
sg37
I00
sbsbsg1094
g0
(g51
g2
Ntp1262
Rp1263
(dp1264
g29
I00
sg35
I01
sg36
I00
sg19
(lp1265
g1192
ag1193
ag1194
ag1195
ag1196
ag1197
ag1198
ag1199
ag1200
ag1201
ag1202
ag1203
ag1204
ag1205
ag1206
ag1207
asg30
Nsg1192
g0
(g71
g2
Ntp1266
Rp1267
(dp1268
g29
I00
sg35
I01
sg36
I00
sg37
F3.163
sbsg1193
g0
(g71
g2
Ntp1269
Rp1270
(dp1271
g29
I00
sg35
I01
sg36
I00
sg37
F0.9698
sbsg1194
g0
(g1141
g184
(lp1272
F0.23
atp1273
Rp1274
(dp1275
g29
I00
sg35
I01
sg36
I00
sbsg1195
g0
(g1141
g184
(lp1276
I0
atp1277
Rp1278
(dp1279
g29
I00
sg35
I01
sg36
I00
sbsg1196
g0
(g75
g2
Ntp1280
Rp1281
(dp1282
g29
I00
sg35
I01
sg36
I00
sg37
I9
sbsg1197
g0
(g75
g2
Ntp1283
Rp1284
(dp1285
g29
I00
sg35
I01
sg36
I00
sg37
I0
sbsg1198
g0
(g1141
g184
(lp1286
F-0.38
aF2.0
aF7.6
aF39.6
atp1287
Rp1288
(dp1289
g29
I00
sg35
I01
sg36
I00
sbsg1199
g0
(g1141
g184
(lp1290
F0.912
aF0.916
aF0.92
aF0.922
atp1291
Rp1292
(dp1293
g29
I00
sg35
I01
sg36
I00
sbsg1200
g0
(g75
g2
Ntp1294
Rp1295
(dp1296
g29
I00
sg35
I01
sg36
I00
sg37
I125
sbsg1201
g0
(g75
g2
Ntp1297
Rp1298
(dp1299
g29
I00
sg35
I01
sg36
I00
sg37
I105
sbsg1202
g0
(g71
g2
Ntp1300
Rp1301
(dp1302
g29
I00
sg35
I01
sg36
I00
sg37
F0.3305
sbsg1203
g0
(g1141
g184
(lp1303
F0.0
atp1304
Rp1305
(dp1306
g29
I00
sg35
I01
sg36
I00
sbsg1204
g0
(g1141
g184
(lp1307
F0.0
atp1308
Rp1309
(dp1310
g29
I00
sg35
I01
sg36
I00
sbsg1205
g0
(g71
g2
Ntp1311
Rp1312
(dp1313
g29
I00
sg35
I01
sg36
I00
sg37
F0.0
sbsg1206
g0
(g71
g2
Ntp1314
Rp1315
(dp1316
g29
I00
sg35
I01
sg36
I00
sg37
F0.1
sbsg1207
g0
(g31
g2
Ntp1317
Rp1318
(dp1319
g29
I00
sg35
I01
sg36
I00
sg37
I00
sbsbsg1095
g0
(g51
g2
Ntp1320
Rp1321
(dp1322
g29
I00
sg35
I01
sg36
I00
sg19
(lp1323
g1192
ag1193
ag1194
ag1195
ag1196
ag1197
ag1198
ag1199
ag1200
ag1201
ag1202
ag1203
ag1204
ag1205
ag1206
ag1207
asg30
Nsg1192
g0
(g71
g2
Ntp1324
Rp1325
(dp1326
g29
I00
sg35
I01
sg36
I00
sg37
F9.354
sbsg1193
g0
(g71
g2
Ntp1327
Rp1328
(dp1329
g29
I00
sg35
I01
sg36
I00
sg37
F2.516
sbsg1194
g0
(g1141
g184
(lp1330
F0.14
aF0.135
atp1331
Rp1332
(dp1333
g29
I00
sg35
I01
sg36
I00
sbsg1195
g0
(g1141
g184
(lp1334
F0.0
aF0.0
atp1335
Rp1336
(dp1337
g29
I00
sg35
I01
sg36
I00
sbsg1196
g0
(g75
g2
Ntp1338
Rp1339
(dp1340
g29
I00
sg35
I01
sg36
I00
sg37
I-9999
sbsg1197
g0
(g75
g2
Ntp1341
Rp1342
(dp1343
g29
I00
sg35
I01
sg36
I00
sg37
I0
sbsg1198
g0
(g1141
g184
(lp1344
F-0.87
aF1.4
aF7.8
aF-29.6
atp1345
Rp1346
(dp1347
g29
I00
sg35
I01
sg36
I00
sbsg1199
g0
(g1141
g184
(lp1348
F0.359
aF0.358
aF0.36
aF0.367
atp1349
Rp1350
(dp1351
g29
I00
sg35
I01
sg36
I00
sbsg1200
g0
(g75
g2
Ntp1352
Rp1353
(dp1354
g29
I00
sg35
I01
sg36
I00
sg37
I301
sbsg1201
g0
(g75
g2
Ntp1355
Rp1356
(dp1357
g29
I00
sg35
I01
sg36
I00
sg37
I301
sbsg1202
g0
(g71
g2
Ntp1358
Rp1359
(dp1360
g29
I00
sg35
I01
sg36
I00
sg37
F0.0
sbsg1203
g0
(g1141
g184
(lp1361
F0.0
atp1362
Rp1363
(dp1364
g29
I00
sg35
I01
sg36
I00
sbsg1204
g0
(g1141
g184
(lp1365
F0.0
atp1366
Rp1367
(dp1368
g29
I00
sg35
I01
sg36
I00
sbsg1205
g0
(g71
g2
Ntp1369
Rp1370
(dp1371
g29
I00
sg35
I01
sg36
I00
sg37
F0.0
sbsg1206
g0
(g71
g2
Ntp1372
Rp1373
(dp1374
g29
I00
sg35
I01
sg36
I00
sg37
F0.1
sbsg1207
g0
(g31
g2
Ntp1375
Rp1376
(dp1377
g29
I00
sg35
I01
sg36
I00
sg37
I00
sbsbsg1096
g0
(g51
g2
Ntp1378
Rp1379
(dp1380
g29
I00
sg35
I01
sg36
I00
sg19
(lp1381
g1192
ag1193
ag1194
ag1195
ag1196
ag1197
ag1198
ag1199
ag1200
ag1201
ag1202
ag1203
ag1204
ag1205
ag1206
ag1207
asg30
Nsg1192
g0
(g71
g2
Ntp1382
Rp1383
(dp1384
g29
I00
sg35
I01
sg36
I00
sg37
F12.06
sbsg1193
g0
(g71
g2
Ntp1385
Rp1386
(dp1387
g29
I00
sg35
I01
sg36
I00
sg37
F0.6285
sbsg1194
g0
(g1141
g184
(lp1388
F0.006
aF0.0087
atp1389
Rp1390
(dp1391
g29
I00
sg35
I01
sg36
I00
sbsg1195
g0
(g1141
g184
(lp1392
F0.0
aF0.0
atp1393
Rp1394
(dp1395
g29
I00
sg35
I01
sg36
I00
sbsg1196
g0
(g75
g2
Ntp1396
Rp1397
(dp1398
g29
I00
sg35
I01
sg36
I00
sg37
I24
sbsg1197
g0
(g75
g2
Ntp1399
Rp1400
(dp1401
g29
I00
sg35
I01
sg36
I00
sg37
I0
sbsg1198
g0
(g1141
g184
(lp1402
F-0.44
aF1.4
aF7.1
aF38.5
atp1403
Rp1404
(dp1405
g29
I00
sg35
I01
sg36
I00
sbsg1199
g0
(g1141
g184
(lp1406
F0.907
aF0.915
aF0.92
aF0.921
atp1407
Rp1408
(dp1409
g29
I00
sg35
I01
sg36
I00
sbsg1200
g0
(g75
g2
Ntp1410
Rp1411
(dp1412
g29
I00
sg35
I01
sg36
I00
sg37
I201
sbsg1201
g0
(g75
g2
Ntp1413
Rp1414
(dp1415
g29
I00
sg35
I01
sg36
I00
sg37
I201
sbsg1202
g0
(g71
g2
Ntp1416
Rp1417
(dp1418
g29
I00
sg35
I01
sg36
I00
sg37
F4.0
sbsg1203
g0
(g1141
g184
(lp1419
F0.0
atp1420
Rp1421
(dp1422
g29
I00
sg35
I01
sg36
I00
sbsg1204
g0
(g1141
g184
(lp1423
F0.0
atp1424
Rp1425
(dp1426
g29
I00
sg35
I01
sg36
I00
sbsg1205
g0
(g71
g2
Ntp1427
Rp1428
(dp1429
g29
I00
sg35
I01
sg36
I00
sg37
F0.0
sbsg1206
g0
(g71
g2
Ntp1430
Rp1431
(dp1432
g29
I00
sg35
I01
sg36
I00
sg37
F0.1
sbsg1207
g0
(g31
g2
Ntp1433
Rp1434
(dp1435
g29
I00
sg35
I01
sg36
I00
sg37
I00
sbsbsg1097
g0
(g51
g2
Ntp1436
Rp1437
(dp1438
g29
I00
sg35
I01
sg36
I00
sg19
(lp1439
g1192
ag1193
ag1194
ag1195
ag1196
ag1197
ag1198
ag1199
ag1200
ag1201
ag1202
ag1203
ag1204
ag1205
ag1206
ag1207
aVradiationDamage
p1440
asg30
Nsg1192
g0
(g71
g2
Ntp1441
Rp1442
(dp1443
g29
I00
sg35
I01
sg36
I00
sg37
F17.3
sbsg1193
g0
(g71
g2
Ntp1444
Rp1445
(dp1446
g29
I00
sg35
I01
sg36
I00
sg37
F1.5
sbsg1194
g0
(g1141
g184
(lp1447
F0.0006252
atp1448
Rp1449
(dp1450
g29
I00
sg35
I01
sg36
I00
sbsg1195
g0
(g1141
g184
(lp1451
I0
atp1452
Rp1453
(dp1454
g29
I00
sg35
I01
sg36
I00
sbsg1196
g0
(g75
g2
Ntp1455
Rp1456
(dp1457
g29
I00
sg35
I01
sg36
I00
sg37
I16
sbsg1197
g0
(g75
g2
Ntp1458
Rp1459
(dp1460
g29
I00
sg35
I01
sg36
I00
sg37
I2
sbsg1198
g0
(g1141
g184
(lp1461
F0.0
aF0.0
aF0.0
aF0.0
atp1462
Rp1463
(dp1464
g29
I00
sg35
I01
sg36
I00
sbsg1199
g0
(g1141
g184
(lp1465
F0.05376
aF0.05376
aF0.05376
aF0.05376
atp1466
Rp1467
(dp1468
g29
I00
sg35
I01
sg36
I00
sbsg1200
g0
(g75
g2
Ntp1469
Rp1470
(dp1471
g29
I00
sg35
I01
sg36
I00
sg37
I206
sbsg1201
g0
(g75
g2
Ntp1472
Rp1473
(dp1474
g29
I00
sg35
I01
sg36
I00
sg37
I208
sbsg1202
g0
(g71
g2
Ntp1475
Rp1476
(dp1477
g29
I00
sg35
I01
sg36
I00
sg37
F40.0
sbsg1203
g0
(g1141
g184
(lp1478
F0.01
aF0.015
atp1479
Rp1480
(dp1481
g29
I00
sg35
I01
sg36
I00
sbsg1204
g0
(g1141
g184
(lp1482
F0.26
aF0.254
atp1483
Rp1484
(dp1485
g29
I00
sg35
I01
sg36
I00
sbsg1205
g0
(g71
g2
Ntp1486
Rp1487
(dp1488
g29
I00
sg35
I01
sg36
I00
sg37
F0.0
sbsg1206
g0
(g71
g2
Ntp1489
Rp1490
(dp1491
g29
I00
sg35
I01
sg36
I00
sg37
F0.1
sbsg1207
g0
(g31
g2
Ntp1492
Rp1493
(dp1494
g29
I00
sg35
I01
sg36
I00
sg37
I01
sbsg1440
g0
(g51
g2
Ntp1495
Rp1496
(dp1497
g29
I00
sg35
I01
sg36
I00
sg19
(lp1498
VtemperatureBase
p1499
aVtemperatureNew
p1500
aVintlumiOffset
p1501
aVdepVsTemp
p1502
aVintlumiToNeutrons
p1503
aVdepVsNeutrons
p1504
asg30
Nsg1499
g0
(g71
g2
Ntp1505
Rp1506
(dp1507
g29
I00
sg35
I01
sg36
I00
sg37
I20
sbsg1500
g0
(g71
g2
Ntp1508
Rp1509
(dp1510
g29
I00
sg35
I01
sg36
I00
sg37
I-5
sbsg1501
g0
(g71
g2
Ntp1511
Rp1512
(dp1513
g29
I00
sg35
I01
sg36
I00
sg37
I150
sbsg1502
g0
(g71
g2
Ntp1514
Rp1515
(dp1516
g29
I00
sg35
I01
sg36
I00
sg37
F0.0631
sbsg1503
g0
(g71
g2
Ntp1517
Rp1518
(dp1519
g29
I00
sg35
I01
sg36
I00
sg37
F367000000.0
sbsg1504
g0
(g1141
g184
(lp1520
F5.543e-10
aF8.012e-10
atp1521
Rp1522
(dp1523
g29
I00
sg35
I01
sg36
I00
sbsbsbsg1098
g0
(g51
g2
Ntp1524
Rp1525
(dp1526
g29
I00
sg35
I01
sg36
I00
sg19
(lp1527
g1192
ag1193
ag1194
ag1195
ag1196
ag1197
ag1198
ag1199
ag1200
ag1201
ag1202
ag1203
ag1204
ag1205
ag1206
ag1207
ag1440
asg30
Nsg1192
g0
(g71
g2
Ntp1528
Rp1529
(dp1530
g29
I00
sg35
I01
sg36
I00
sg37
F17.3
sbsg1193
g0
(g71
g2
Ntp1531
Rp1532
(dp1533
g29
I00
sg35
I01
sg36
I00
sg37
F1.5
sbsg1194
g0
(g1141
g184
(lp1534
F0.0006252
atp1535
Rp1536
(dp1537
g29
I00
sg35
I01
sg36
I00
sbsg1195
g0
(g1141
g184
(lp1538
I0
atp1539
Rp1540
(dp1541
g29
I00
sg35
I01
sg36
I00
sbsg1196
g0
(g75
g2
Ntp1542
Rp1543
(dp1544
g29
I00
sg35
I01
sg36
I00
sg37
I16
sbsg1197
g0
(g75
g2
Ntp1545
Rp1546
(dp1547
g29
I00
sg35
I01
sg36
I00
sg37
I2
sbsg1198
g0
(g1141
g184
(lp1548
F0.0
aF0.0
aF0.0
aF0.0
atp1549
Rp1550
(dp1551
g29
I00
sg35
I01
sg36
I00
sbsg1199
g0
(g1141
g184
(lp1552
F0.05376
aF0.05376
aF0.05376
aF0.05376
atp1553
Rp1554
(dp1555
g29
I00
sg35
I01
sg36
I00
sbsg1200
g0
(g75
g2
Ntp1556
Rp1557
(dp1558
g29
I00
sg35
I01
sg36
I00
sg37
I206
sbsg1201
g0
(g75
g2
Ntp1559
Rp1560
(dp1561
g29
I00
sg35
I01
sg36
I00
sg37
I208
sbsg1202
g0
(g71
g2
Ntp1562
Rp1563
(dp1564
g29
I00
sg35
I01
sg36
I00
sg37
F40.0
sbsg1203
g0
(g1141
g184
(lp1565
F0.01
aF0.015
atp1566
Rp1567
(dp1568
g29
I00
sg35
I01
sg36
I00
sbsg1204
g0
(g1141
g184
(lp1569
F0.26
aF0.254
atp1570
Rp1571
(dp1572
g29
I00
sg35
I01
sg36
I00
sbsg1205
g0
(g71
g2
Ntp1573
Rp1574
(dp1575
g29
I00
sg35
I01
sg36
I00
sg37
F0.0
sbsg1206
g0
(g71
g2
Ntp1576
Rp1577
(dp1578
g29
I00
sg35
I01
sg36
I00
sg37
F0.1
sbsg1207
g0
(g31
g2
Ntp1579
Rp1580
(dp1581
g29
I00
sg35
I01
sg36
I00
sg37
I01
sbsg1440
g0
(g51
g2
Ntp1582
Rp1583
(dp1584
g29
I00
sg35
I01
sg36
I00
sg19
(lp1585
g1499
ag1500
ag1501
ag1502
ag1503
ag1504
asg30
Nsg1499
g0
(g71
g2
Ntp1586
Rp1587
(dp1588
g29
I00
sg35
I01
sg36
I00
sg37
I20
sbsg1500
g0
(g71
g2
Ntp1589
Rp1590
(dp1591
g29
I00
sg35
I01
sg36
I00
sg37
I5
sbsg1501
g0
(g71
g2
Ntp1592
Rp1593
(dp1594
g29
I00
sg35
I01
sg36
I00
sg37
I75
sbsg1502
g0
(g71
g2
Ntp1595
Rp1596
(dp1597
g29
I00
sg35
I01
sg36
I00
sg37
F0.0631
sbsg1503
g0
(g71
g2
Ntp1598
Rp1599
(dp1600
g29
I00
sg35
I01
sg36
I00
sg37
F29200000.0
sbsg1504
g0
(g1141
g184
(lp1601
F5.543e-10
aF8.012e-10
atp1602
Rp1603
(dp1604
g29
I00
sg35
I01
sg36
I00
sbsbsbsg1099
g0
(g51
g2
Ntp1605
Rp1606
(dp1607
g29
I00
sg35
I01
sg36
I00
sg19
(lp1608
g1192
ag1193
ag1194
ag1195
ag1196
ag1197
ag1198
ag1199
ag1200
ag1201
ag1202
ag1203
ag1204
ag1205
ag1206
ag1207
asg30
Nsg1192
g0
(g71
g2
Ntp1609
Rp1610
(dp1611
g29
I00
sg35
I01
sg36
I00
sg37
F13.33
sbsg1193
g0
(g71
g2
Ntp1612
Rp1613
(dp1614
g29
I00
sg35
I01
sg36
I00
sg37
F3.33
sbsg1194
g0
(g1141
g184
(lp1615
F0.14
aF0.135
atp1616
Rp1617
(dp1618
g29
I00
sg35
I01
sg36
I00
sbsg1195
g0
(g1141
g184
(lp1619
F0.0
aF0.0
atp1620
Rp1621
(dp1622
g29
I00
sg35
I01
sg36
I00
sbsg1196
g0
(g75
g2
Ntp1623
Rp1624
(dp1625
g29
I00
sg35
I01
sg36
I00
sg37
I-9999
sbsg1197
g0
(g75
g2
Ntp1626
Rp1627
(dp1628
g29
I00
sg35
I01
sg36
I00
sg37
I1
sbsg1198
g0
(g1141
g184
(lp1629
F0.0697
aF-0.7405
aF12.38
aF-671.9
atp1630
Rp1631
(dp1632
g29
I00
sg35
I01
sg36
I00
sbsg1199
g0
(g1141
g184
(lp1633
F0.297
aF0.298
aF0.298
aF0.313
atp1634
Rp1635
(dp1636
g29
I00
sg35
I01
sg36
I00
sbsg1200
g0
(g75
g2
Ntp1637
Rp1638
(dp1639
g29
I00
sg35
I01
sg36
I00
sg37
I301
sbsg1201
g0
(g75
g2
Ntp1640
Rp1641
(dp1642
g29
I00
sg35
I01
sg36
I00
sg37
I301
sbsg1202
g0
(g71
g2
Ntp1643
Rp1644
(dp1645
g29
I00
sg35
I01
sg36
I00
sg37
F0.0
sbsg1203
g0
(g1141
g184
(lp1646
F0.0
atp1647
Rp1648
(dp1649
g29
I00
sg35
I01
sg36
I00
sbsg1204
g0
(g1141
g184
(lp1650
F0.0
atp1651
Rp1652
(dp1653
g29
I00
sg35
I01
sg36
I00
sbsg1205
g0
(g71
g2
Ntp1654
Rp1655
(dp1656
g29
I00
sg35
I01
sg36
I00
sg37
F0.0
sbsg1206
g0
(g71
g2
Ntp1657
Rp1658
(dp1659
g29
I00
sg35
I01
sg36
I00
sg37
F0.1
sbsg1207
g0
(g31
g2
Ntp1660
Rp1661
(dp1662
g29
I00
sg35
I01
sg36
I00
sg37
I00
sbsbsg1100
g0
(g183
g184
(lp1663
g0
(g51
g2
Ntp1664
Rp1665
(dp1666
g29
I00
sg35
I01
sg36
I00
sg19
(lp1667
Vpixels
p1668
aVcrosstalk
p1669
aVnonlin1
p1670
aVnonlin2
p1671
aVnonlin3
p1672
asg30
Nsg1668
g0
(g75
g2
Ntp1673
Rp1674
(dp1675
g29
I00
sg35
I01
sg36
I00
sg37
I36000
sbsg1669
g0
(g71
g2
Ntp1676
Rp1677
(dp1678
g29
I00
sg35
I01
sg36
I00
sg37
F0.0
sbsg1670
g0
(g71
g2
Ntp1679
Rp1680
(dp1681
g29
I00
sg35
I01
sg36
I00
sg37
F1.0
sbsg1671
g0
(g71
g2
Ntp1682
Rp1683
(dp1684
g29
I00
sg35
I01
sg36
I00
sg37
F0.0
sbsg1672
g0
(g71
g2
Ntp1685
Rp1686
(dp1687
g29
I00
sg35
I01
sg36
I00
sg37
F0.0
sbsbag0
(g51
g2
Ntp1688
Rp1689
(dp1690
g29
I00
sg35
I01
sg36
I00
sg19
(lp1691
g1668
ag1669
ag1670
ag1671
ag1672
asg30
Nsg1668
g0
(g75
g2
Ntp1692
Rp1693
(dp1694
g29
I00
sg35
I01
sg36
I00
sg37
I2500
sbsg1669
g0
(g71
g2
Ntp1695
Rp1696
(dp1697
g29
I00
sg35
I01
sg36
I00
sg37
F0.0
sbsg1670
g0
(g71
g2
Ntp1698
Rp1699
(dp1700
g29
I00
sg35
I01
sg36
I00
sg37
F1.0
sbsg1671
g0
(g71
g2
Ntp1701
Rp1702
(dp1703
g29
I00
sg35
I01
sg36
I00
sg37
F0.0
sbsg1672
g0
(g71
g2
Ntp1704
Rp1705
(dp1706
g29
I00
sg35
I01
sg36
I00
sg37
F0.0
sbsbag0
(g51
g2
Ntp1707
Rp1708
(dp1709
g29
I00
sg35
I01
sg36
I00
sg19
(lp1710
g1668
ag1669
ag1670
ag1671
ag1672
asg30
Nsg1668
g0
(g75
g2
Ntp1711
Rp1712
(dp1713
g29
I00
sg35
I01
sg36
I00
sg37
I27370
sbsg1669
g0
(g71
g2
Ntp1714
Rp1715
(dp1716
g29
I00
sg35
I01
sg36
I00
sg37
F0.17
sbsg1670
g0
(g71
g2
Ntp1717
Rp1718
(dp1719
g29
I00
sg35
I01
sg36
I00
sg37
F1.00985
sbsg1671
g0
(g71
g2
Ntp1720
Rp1721
(dp1722
g29
I00
sg35
I01
sg36
I00
sg37
F7.84089e-06
sbsg1672
g0
(g71
g2
Ntp1723
Rp1724
(dp1725
g29
I00
sg35
I01
sg36
I00
sg37
F2.86282e-10
sbsbag0
(g51
g2
Ntp1726
Rp1727
(dp1728
g29
I00
sg35
I01
sg36
I00
sg19
(lp1729
g1668
ag1669
ag1670
ag1671
ag1672
asg30
Nsg1668
g0
(g75
g2
Ntp1730
Rp1731
(dp1732
g29
I00
sg35
I01
sg36
I00
sg37
I38018
sbsg1669
g0
(g71
g2
Ntp1733
Rp1734
(dp1735
g29
I00
sg35
I01
sg36
I00
sg37
F0.196
sbsg1670
g0
(g71
g2
Ntp1736
Rp1737
(dp1738
g29
I00
sg35
I01
sg36
I00
sg37
F1.00546
sbsg1671
g0
(g71
g2
Ntp1739
Rp1740
(dp1741
g29
I00
sg35
I01
sg36
I00
sg37
F6.40239e-06
sbsg1672
g0
(g71
g2
Ntp1742
Rp1743
(dp1744
g29
I00
sg35
I01
sg36
I00
sg37
F1.27011e-10
sbsbag0
(g51
g2
Ntp1745
Rp1746
(dp1747
g29
I00
sg35
I01
sg36
I00
sg19
(lp1748
g1668
ag1669
ag1670
ag1671
ag1672
asg30
Nsg1668
g0
(g75
g2
Ntp1749
Rp1750
(dp1751
g29
I00
sg35
I01
sg36
I00
sg37
I27370
sbsg1669
g0
(g71
g2
Ntp1752
Rp1753
(dp1754
g29
I00
sg35
I01
sg36
I00
sg37
F0.17
sbsg1670
g0
(g71
g2
Ntp1755
Rp1756
(dp1757
g29
I00
sg35
I01
sg36
I00
sg37
F1.00985
sbsg1671
g0
(g71
g2
Ntp1758
Rp1759
(dp1760
g29
I00
sg35
I01
sg36
I00
sg37
F7.84089e-06
sbsg1672
g0
(g71
g2
Ntp1761
Rp1762
(dp1763
g29
I00
sg35
I01
sg36
I00
sg37
F2.86282e-10
sbsbag0
(g51
g2
Ntp1764
Rp1765
(dp1766
g29
I00
sg35
I01
sg36
I00
sg19
(lp1767
g1668
ag1669
ag1670
ag1671
ag1672
asg30
Nsg1668
g0
(g75
g2
Ntp1768
Rp1769
(dp1770
g29
I00
sg35
I01
sg36
I00
sg37
I38018
sbsg1669
g0
(g71
g2
Ntp1771
Rp1772
(dp1773
g29
I00
sg35
I01
sg36
I00
sg37
F0.196
sbsg1670
g0
(g71
g2
Ntp1774
Rp1775
(dp1776
g29
I00
sg35
I01
sg36
I00
sg37
F1.00546
sbsg1671
g0
(g71
g2
Ntp1777
Rp1778
(dp1779
g29
I00
sg35
I01
sg36
I00
sg37
F6.40239e-06
sbsg1672
g0
(g71
g2
Ntp1780
Rp1781
(dp1782
g29
I00
sg35
I01
sg36
I00
sg37
F1.27011e-10
sbsbag0
(g51
g2
Ntp1783
Rp1784
(dp1785
g29
I00
sg35
I01
sg36
I00
sg19
(lp1786
g1668
ag1669
ag1670
ag1671
ag1672
asg30
Nsg1668
g0
(g75
g2
Ntp1787
Rp1788
(dp1789
g29
I00
sg35
I01
sg36
I00
sg37
I0
sbsg1669
g0
(g71
g2
Ntp1790
Rp1791
(dp1792
g29
I00
sg35
I01
sg36
I00
sg37
F0.0
sbsg1670
g0
(g71
g2
Ntp1793
Rp1794
(dp1795
g29
I00
sg35
I01
sg36
I00
sg37
F1.0
sbsg1671
g0
(g71
g2
Ntp1796
Rp1797
(dp1798
g29
I00
sg35
I01
sg36
I00
sg37
F0.0
sbsg1672
g0
(g71
g2
Ntp1799
Rp1800
(dp1801
g29
I00
sg35
I01
sg36
I00
sg37
F0.0
sbsbatp1802
Rp1803
(dp1804
g29
I00
sg35
I01
sg36
I00
sg240
I1
sbsg247
V/cvmfs/cms.cern.ch/el8_amd64_gcc12/cms/cmssw/CMSSW_14_0_10/src/CalibCalorimetry/HcalPlugins/python/Hcal_Conditions_forGlobalTag_cff.py
p1805
sg249
I16
sg250
g1068
sbsVeegeom
p1806
g0
(g819
g2
Ntp1807
Rp1808
(dp1809
g17
VEmptyESSource
p1810
sg19
(lp1811
VrecordName
p1812
aViovIsRunNotTime
p1813
aVfirstValid
p1814
asg29
I00
sg30
Nsg1812
g0
(g66
g2
Ntp1815
Rp1816
(dp1817
g29
I00
sg35
I01
sg36
I00
sg37
VEcalMappingRcd
p1818
sbsg36
I00
sg1813
g0
(g31
g2
Ntp1819
Rp1820
(dp1821
g29
I00
sg35
I01
sg36
I00
sg37
I01
sbsg1814
g0
(cFWCore.ParameterSet.Types
vuint32
p1822
g184
(lp1823
I1
atp1824
Rp1825
(dp1826
g29
I00
sg35
I01
sg36
I00
sbsg247
V/cvmfs/cms.cern.ch/el8_amd64_gcc12/cms/cmssw/CMSSW_14_0_10/src/Geometry/EcalMapping/python/EcalMappingRecord_cfi.py
p1827
sg249
I3
sg250
g1806
sbssV_Process__esproducers
p1828
(dp1829
VCastorDbProducer
p1830
g0
(cFWCore.ParameterSet.Modules
ESProducer
p1831
g2
Ntp1832
Rp1833
(dp1834
g17
g1830
sg19
(lp1835
g903
asg29
I00
sg30
Nsg903
g0
(g66
g2
Ntp1836
Rp1837
(dp1838
g29
I00
sg35
I01
sg36
I00
sg37
g45
sbsg36
I00
sg247
g272
sg249
I55
sg250
g1830
sbsVEcalLaserCorrectionService
p1839
g0
(g1831
g2
Ntp1840
Rp1841
(dp1842
g17
g1839
sg19
(lp1843
VmaxExtrapolationTimeInSec
p1844
asg29
I00
sg30
Nsg1844
g0
(g176
g2
Ntp1845
Rp1846
(dp1847
g29
I00
sg35
I01
sg36
I00
sg37
I0
sbsg36
I00
sg247
g272
sg249
I55
sg250
g1839
sbsVEcalLaserCorrectionServiceMC
p1848
g0
(g1831
g2
Ntp1849
Rp1850
(dp1851
g17
g1848
sg19
(lp1852
g903
asg29
I00
sg30
Nsg903
g0
(g66
g2
Ntp1853
Rp1854
(dp1855
g29
I00
sg35
I01
sg36
I00
sg37
g45
sbsg36
I00
sg247
g272
sg249
I55
sg250
g1848
sbsVSiStripRecHitMatcherESProducer
p1856
g0
(g1831
g2
Ntp1857
Rp1858
(dp1859
g17
g1856
sg19
(lp1860
VComponentName
p1861
aVNSigmaInside
p1862
aVPreFilter
p1863
asg29
I00
sg30
Nsg1861
g0
(g66
g2
Ntp1864
Rp1865
(dp1866
g29
I00
sg35
I01
sg36
I00
sg37
VStandardMatcher
p1867
sbsg36
I00
sg1862
g0
(g71
g2
Ntp1868
Rp1869
(dp1870
g29
I00
sg35
I01
sg36
I00
sg37
F3.0
sbsg1863
g0
(g31
g2
Ntp1871
Rp1872
(dp1873
g29
I00
sg35
I01
sg36
I00
sg37
I00
sbsg247
g272
sg249
I55
sg250
g1856
sbsVStripCPEfromTrackAngleESProducer
p1874
g0
(g1831
g2
Ntp1875
Rp1876
(dp1877
g17
VStripCPEESProducer
p1878
sg19
(lp1879
g1861
aVComponentType
p1880
aVparameters
p1881
asg29
I00
sg30
Nsg1861
g0
(g66
g2
Ntp1882
Rp1883
(dp1884
g29
I00
sg35
I01
sg36
I01
sg37
VStripCPEfromTrackAngle
p1885
sbsg36
I00
sg1880
g0
(g66
g2
Ntp1886
Rp1887
(dp1888
g29
I00
sg35
I01
sg36
I01
sg37
g1885
sbsg1881
g0
(g51
g2
Ntp1889
Rp1890
(dp1891
g29
I00
sg35
I01
sg36
I00
sg19
(lp1892
VmLC_P0
p1893
aVmLC_P1
p1894
aVmLC_P2
p1895
aVmTIB_P0
p1896
aVmTIB_P1
p1897
aVmTOB_P0
p1898
aVmTOB_P1
p1899
aVmTID_P0
p1900
aVmTID_P1
p1901
aVmTEC_P0
p1902
aVmTEC_P1
p1903
aVuseLegacyError
p1904
aVmaxChgOneMIP
p1905
asg30
Nsg1893
g0
(g71
g2
Ntp1906
Rp1907
(dp1908
g29
I00
sg35
I01
sg36
I00
sg37
F-0.326
sbsg1894
g0
(g71
g2
Ntp1909
Rp1910
(dp1911
g29
I00
sg35
I01
sg36
I00
sg37
F0.618
sbsg1895
g0
(g71
g2
Ntp1912
Rp1913
(dp1914
g29
I00
sg35
I01
sg36
I00
sg37
F0.3
sbsg1896
g0
(g71
g2
Ntp1915
Rp1916
(dp1917
g29
I00
sg35
I01
sg36
I00
sg37
F-0.742
sbsg1897
g0
(g71
g2
Ntp1918
Rp1919
(dp1920
g29
I00
sg35
I01
sg36
I00
sg37
F0.202
sbsg1898
g0
(g71
g2
Ntp1921
Rp1922
(dp1923
g29
I00
sg35
I01
sg36
I00
sg37
F-1.026
sbsg1899
g0
(g71
g2
Ntp1924
Rp1925
(dp1926
g29
I00
sg35
I01
sg36
I00
sg37
F0.253
sbsg1900
g0
(g71
g2
Ntp1927
Rp1928
(dp1929
g29
I00
sg35
I01
sg36
I00
sg37
F-1.427
sbsg1901
g0
(g71
g2
Ntp1930
Rp1931
(dp1932
g29
I00
sg35
I01
sg36
I00
sg37
F0.433
sbsg1902
g0
(g71
g2
Ntp1933
Rp1934
(dp1935
g29
I00
sg35
I01
sg36
I00
sg37
F-1.885
sbsg1903
g0
(g71
g2
Ntp1936
Rp1937
(dp1938
g29
I00
sg35
I01
sg36
I00
sg37
F0.471
sbsg1904
g0
(g31
g2
Ntp1939
Rp1940
(dp1941
g29
I00
sg35
I01
sg36
I00
sg37
I00
sbsg1905
g0
(g71
g2
Ntp1942
Rp1943
(dp1944
g29
I00
sg35
I01
sg36
I00
sg37
F6000.0
sbsbsg247
V/cvmfs/cms.cern.ch/el8_amd64_gcc12/cms/cmssw/CMSSW_14_0_10/src/RecoLocalTracker/SiStripRecHitConverter/python/StripCPEfromTrackAngle_cfi.py
p1945
sg249
I4
sg250
g1874
sbsVctppsBeamParametersFromLHCInfoESSource
p1946
g0
(g1831
g2
Ntp1947
Rp1948
(dp1949
g17
VCTPPSBeamParametersFromLHCInfoESSource
p1950
sg19
(lp1951
VlhcInfoLabel
p1952
aVlhcInfoPerLSLabel
p1953
aVlhcInfoPerFillLabel
p1954
aVuseNewLHCInfo
p1955
aVbeamDivX45
p1956
aVbeamDivY45
p1957
aVbeamDivX56
p1958
aVbeamDivY56
p1959
aVvtxOffsetX45
p1960
aVvtxOffsetY45
p1961
aVvtxOffsetZ45
p1962
aVvtxOffsetX56
p1963
aVvtxOffsetY56
p1964
aVvtxOffsetZ56
p1965
aVvtxStddevX
p1966
aVvtxStddevY
p1967
aVvtxStddevZ
p1968
ag903
asg29
I00
sg30
Nsg1952
g0
(g66
g2
Ntp1969
Rp1970
(dp1971
g29
I00
sg35
I01
sg36
I00
sg37
g45
sbsg36
I00
sg1953
g0
(g66
g2
Ntp1972
Rp1973
(dp1974
g29
I00
sg35
I01
sg36
I00
sg37
g45
sbsg1954
g0
(g66
g2
Ntp1975
Rp1976
(dp1977
g29
I00
sg35
I01
sg36
I00
sg37
g45
sbsg1955
g0
(g31
g2
Ntp1978
Rp1979
(dp1980
g29
I00
sg35
I01
sg36
I00
sg37
I00
sbsg1956
g0
(g71
g2
Ntp1981
Rp1982
(dp1983
g29
I00
sg35
I01
sg36
I00
sg37
F0.1
sbsg1957
g0
(g71
g2
Ntp1984
Rp1985
(dp1986
g29
I00
sg35
I01
sg36
I00
sg37
F0.1
sbsg1958
g0
(g71
g2
Ntp1987
Rp1988
(dp1989
g29
I00
sg35
I01
sg36
I00
sg37
F0.1
sbsg1959
g0
(g71
g2
Ntp1990
Rp1991
(dp1992
g29
I00
sg35
I01
sg36
I00
sg37
F0.1
sbsg1960
g0
(g71
g2
Ntp1993
Rp1994
(dp1995
g29
I00
sg35
I01
sg36
I00
sg37
F0.01
sbsg1961
g0
(g71
g2
Ntp1996
Rp1997
(dp1998
g29
I00
sg35
I01
sg36
I00
sg37
F0.01
sbsg1962
g0
(g71
g2
Ntp1999
Rp2000
(dp2001
g29
I00
sg35
I01
sg36
I00
sg37
F0.01
sbsg1963
g0
(g71
g2
Ntp2002
Rp2003
(dp2004
g29
I00
sg35
I01
sg36
I00
sg37
F0.01
sbsg1964
g0
(g71
g2
Ntp2005
Rp2006
(dp2007
g29
I00
sg35
I01
sg36
I00
sg37
F0.01
sbsg1965
g0
(g71
g2
Ntp2008
Rp2009
(dp2010
g29
I00
sg35
I01
sg36
I00
sg37
F0.01
sbsg1966
g0
(g71
g2
Ntp2011
Rp2012
(dp2013
g29
I00
sg35
I01
sg36
I00
sg37
F0.02
sbsg1967
g0
(g71
g2
Ntp2014
Rp2015
(dp2016
g29
I00
sg35
I01
sg36
I00
sg37
F0.02
sbsg1968
g0
(g71
g2
Ntp2017
Rp2018
(dp2019
g29
I00
sg35
I01
sg36
I00
sg37
F0.02
sbsg903
g0
(g66
g2
Ntp2020
Rp2021
(dp2022
g29
I00
sg35
I01
sg36
I00
sg37
g45
sbsg247
V/cvmfs/cms.cern.ch/el8_amd64_gcc12/cms/cmssw/CMSSW_14_0_10/src/CalibPPS/ESProducers/python/ctppsBeamParametersFromLHCInfoESSource_cfi.py
p2023
sg249
I2
sg250
g1946
sbsVctppsInterpolatedOpticalFunctionsESSource
p2024
g0
(g1831
g2
Ntp2025
Rp2026
(dp2027
g17
VCTPPSInterpolatedOpticalFunctionsESSource
p2028
sg19
(lp2029
g1952
ag1954
ag1953
aVopticsLabel
p2030
ag1955
ag903
asg29
I00
sg30
Nsg1952
g0
(g66
g2
Ntp2031
Rp2032
(dp2033
g29
I00
sg35
I01
sg36
I00
sg37
g45
sbsg36
I01
sg1954
g0
(g66
g2
Ntp2034
Rp2035
(dp2036
g29
I00
sg35
I01
sg36
I00
sg37
g45
sbsg1953
g0
(g66
g2
Ntp2037
Rp2038
(dp2039
g29
I00
sg35
I01
sg36
I00
sg37
g45
sbsg2030
g0
(g66
g2
Ntp2040
Rp2041
(dp2042
g29
I00
sg35
I01
sg36
I00
sg37
g45
sbsg1955
g0
(g31
g2
Ntp2043
Rp2044
(dp2045
g29
I00
sg35
I01
sg36
I00
sg37
I00
sbsg903
g0
(g66
g2
Ntp2046
Rp2047
(dp2048
g29
I00
sg35
I01
sg36
I00
sg37
g45
sbsg247
V/cvmfs/cms.cern.ch/el8_amd64_gcc12/cms/cmssw/CMSSW_14_0_10/src/CalibPPS/ESProducers/python/ctppsInterpolatedOpticalFunctionsESSource_cfi.py
p2049
sg249
I2
sg250
g2024
sbsVhcal_db_producer
p2050
g0
(g1831
g2
Ntp2051
Rp2052
(dp2053
g17
VHcalDbProducer
p2054
sg19
(lp2055
Vdump
p2056
aVfile
p2057
asg29
I00
sg30
Nsg2056
g0
(g262
g184
(lp2058
g45
atp2059
Rp2060
(dp2061
g29
I00
sg35
I00
sg36
I00
sg240
I1
sbsg36
I00
sg2057
g0
(g66
g2
Ntp2062
Rp2063
(dp2064
g29
I00
sg35
I00
sg36
I00
sg37
g45
sbsg247
g272
sg249
I55
sg250
g2050
sbsVmultipleScatteringParametrisationMakerESProducer
p2065
g0
(g1831
g2
Ntp2066
Rp2067
(dp2068
g17
VMultipleScatteringParametrisationMakerESProducer
p2069
sg19
(lp2070
g903
asg29
I00
sg30
Nsg903
g0
(g66
g2
Ntp2071
Rp2072
(dp2073
g29
I00
sg35
I01
sg36
I00
sg37
g45
sbsg36
I00
sg247
g272
sg249
I55
sg250
g2065
sbsVsiPixelQualityESProducer
p2074
g0
(g1831
g2
Ntp2075
Rp2076
(dp2077
g17
VSiPixelQualityESProducer
p2078
sg19
(lp2079
VsiPixelQualityFromDbLabel
p2080
aVListOfRecordToMerge
p2081
ag903
asg29
I00
sg30
Nsg2080
g0
(g66
g2
Ntp2082
Rp2083
(dp2084
g29
I00
sg35
I01
sg36
I00
sg37
g45
sbsg36
I00
sg2081
g0
(g183
g184
(lp2085
g0
(g51
g2
Ntp2086
Rp2087
(dp2088
g29
I00
sg35
I01
sg36
I00
sg19
(lp2089
Vrecord
p2090
aVtag
p2091
asg30
Nsg2090
g0
(g66
g2
Ntp2092
Rp2093
(dp2094
g29
I00
sg35
I01
sg36
I00
sg37
VSiPixelQualityFromDbRcd
p2095
sbsg2091
g0
(g66
g2
Ntp2096
Rp2097
(dp2098
g29
I00
sg35
I01
sg36
I00
sg37
g45
sbsbag0
(g51
g2
Ntp2099
Rp2100
(dp2101
g29
I00
sg35
I01
sg36
I00
sg19
(lp2102
g2090
ag2091
asg30
Nsg2090
g0
(g66
g2
Ntp2103
Rp2104
(dp2105
g29
I00
sg35
I01
sg36
I00
sg37
VSiPixelDetVOffRcd
p2106
sbsg2091
g0
(g66
g2
Ntp2107
Rp2108
(dp2109
g29
I00
sg35
I01
sg36
I00
sg37
g45
sbsbatp2110
Rp2111
(dp2112
g29
I00
sg35
I01
sg36
I00
sg240
I1
sbsg903
g0
(g66
g2
Ntp2113
Rp2114
(dp2115
g29
I00
sg35
I01
sg36
I00
sg37
g45
sbsg247
g272
sg249
I55
sg250
g2074
sbsVsiStripBackPlaneCorrectionDepESProducer
p2116
g0
(g1831
g2
Ntp2117
Rp2118
(dp2119
g17
VSiStripBackPlaneCorrectionDepESProducer
p2120
sg19
(lp2121
VLatencyRecord
p2122
aVBackPlaneCorrectionPeakMode
p2123
aVBackPlaneCorrectionDeconvMode
p2124
asg29
I00
sg30
Nsg2122
g0
(g51
g2
Ntp2125
Rp2126
(dp2127
g29
I00
sg35
I01
sg36
I00
sg19
(lp2128
g2090
ag190
asg30
Nsg2090
g0
(g66
g2
Ntp2129
Rp2130
(dp2131
g29
I00
sg35
I01
sg36
I00
sg37
VSiStripLatencyRcd
p2132
sbsg190
g0
(g66
g2
Ntp2133
Rp2134
(dp2135
g29
I00
sg35
I00
sg36
I00
sg37
g45
sbsbsg36
I00
sg2123
g0
(g51
g2
Ntp2136
Rp2137
(dp2138
g29
I00
sg35
I01
sg36
I00
sg19
(lp2139
g2090
ag190
asg30
Nsg2090
g0
(g66
g2
Ntp2140
Rp2141
(dp2142
g29
I00
sg35
I01
sg36
I00
sg37
VSiStripBackPlaneCorrectionRcd
p2143
sbsg190
g0
(g66
g2
Ntp2144
Rp2145
(dp2146
g29
I00
sg35
I00
sg36
I00
sg37
Vpeak
p2147
sbsbsg2124
g0
(g51
g2
Ntp2148
Rp2149
(dp2150
g29
I00
sg35
I01
sg36
I00
sg19
(lp2151
g2090
ag190
asg30
Nsg2090
g0
(g66
g2
Ntp2152
Rp2153
(dp2154
g29
I00
sg35
I01
sg36
I00
sg37
g2143
sbsg190
g0
(g66
g2
Ntp2155
Rp2156
(dp2157
g29
I00
sg35
I00
sg36
I00
sg37
Vdeconvolution
p2158
sbsbsg247
g272
sg249
I55
sg250
g2116
sbsVsiStripGainESProducer
p2159
g0
(g1831
g2
Ntp2160
Rp2161
(dp2162
g17
VSiStripGainESProducer
p2163
sg19
(lp2164
g903
aVprintDebug
p2165
aVAutomaticNormalization
p2166
aVAPVGain
p2167
asg29
I00
sg30
Nsg903
g0
(g66
g2
Ntp2168
Rp2169
(dp2170
g29
I00
sg35
I01
sg36
I00
sg37
g45
sbsg36
I00
sg2165
g0
(g31
g2
Ntp2171
Rp2172
(dp2173
g29
I00
sg35
I00
sg36
I00
sg37
I00
sbsg2166
g0
(g31
g2
Ntp2174
Rp2175
(dp2176
g29
I00
sg35
I01
sg36
I00
sg37
I00
sbsg2167
g0
(g183
g184
(lp2177
g0
(g51
g2
Ntp2178
Rp2179
(dp2180
g29
I00
sg35
I01
sg36
I00
sg19
(lp2181
VRecord
p2182
aVLabel
p2183
aVNormalizationFactor
p2184
asg30
Nsg2182
g0
(g66
g2
Ntp2185
Rp2186
(dp2187
g29
I00
sg35
I01
sg36
I00
sg37
VSiStripApvGainRcd
p2188
sbsg2183
g0
(g66
g2
Ntp2189
Rp2190
(dp2191
g29
I00
sg35
I00
sg36
I00
sg37
g45
sbsg2184
g0
(g71
g2
Ntp2192
Rp2193
(dp2194
g29
I00
sg35
I00
sg36
I00
sg37
F1.0
sbsbag0
(g51
g2
Ntp2195
Rp2196
(dp2197
g29
I00
sg35
I01
sg36
I00
sg19
(lp2198
g2182
ag2183
ag2184
asg30
Nsg2182
g0
(g66
g2
Ntp2199
Rp2200
(dp2201
g29
I00
sg35
I01
sg36
I00
sg37
VSiStripApvGain2Rcd
p2202
sbsg2183
g0
(g66
g2
Ntp2203
Rp2204
(dp2205
g29
I00
sg35
I00
sg36
I00
sg37
g45
sbsg2184
g0
(g71
g2
Ntp2206
Rp2207
(dp2208
g29
I00
sg35
I00
sg36
I00
sg37
F1.0
sbsbatp2209
Rp2210
(dp2211
g29
I00
sg35
I01
sg36
I00
sg240
I1
sbsg247
g272
sg249
I55
sg250
g2159
sbsVsiStripLorentzAngleDepESProducer
p2212
g0
(g1831
g2
Ntp2213
Rp2214
(dp2215
g17
VSiStripLorentzAngleDepESProducer
p2216
sg19
(lp2217
g2122
aVLorentzAnglePeakMode
p2218
aVLorentzAngleDeconvMode
p2219
asg29
I00
sg30
Nsg2122
g0
(g51
g2
Ntp2220
Rp2221
(dp2222
g29
I00
sg35
I01
sg36
I00
sg19
(lp2223
g2090
ag190
asg30
Nsg2090
g0
(g66
g2
Ntp2224
Rp2225
(dp2226
g29
I00
sg35
I01
sg36
I00
sg37
g2132
sbsg190
g0
(g66
g2
Ntp2227
Rp2228
(dp2229
g29
I00
sg35
I00
sg36
I00
sg37
g45
sbsbsg36
I00
sg2218
g0
(g51
g2
Ntp2230
Rp2231
(dp2232
g29
I00
sg35
I01
sg36
I00
sg19
(lp2233
g2090
ag190
asg30
Nsg2090
g0
(g66
g2
Ntp2234
Rp2235
(dp2236
g29
I00
sg35
I01
sg36
I00
sg37
VSiStripLorentzAngleRcd
p2237
sbsg190
g0
(g66
g2
Ntp2238
Rp2239
(dp2240
g29
I00
sg35
I00
sg36
I00
sg37
g2147
sbsbsg2219
g0
(g51
g2
Ntp2241
Rp2242
(dp2243
g29
I00
sg35
I01
sg36
I00
sg19
(lp2244
g2090
ag190
asg30
Nsg2090
g0
(g66
g2
Ntp2245
Rp2246
(dp2247
g29
I00
sg35
I01
sg36
I00
sg37
g2237
sbsg190
g0
(g66
g2
Ntp2248
Rp2249
(dp2250
g29
I00
sg35
I00
sg36
I00
sg37
g2158
sbsbsg247
g272
sg249
I55
sg250
g2212
sbsVsiStripQualityESProducer
p2251
g0
(g1831
g2
Ntp2252
Rp2253
(dp2254
g17
VSiStripQualityESProducer
p2255
sg19
(lp2256
g903
ag2081
aVReduceGranularity
p2257
aVThresholdForReducedGranularity
p2258
aVPrintDebugOutput
p2259
aVUseEmptyRunInfo
p2260
asg29
I00
sg30
Nsg903
g0
(g66
g2
Ntp2261
Rp2262
(dp2263
g29
I00
sg35
I01
sg36
I00
sg37
g45
sbsg36
I01
sg2081
g0
(g183
g184
(lp2264
g0
(g51
g2
Ntp2265
Rp2266
(dp2267
g29
I00
sg35
I01
sg36
I00
sg19
(lp2268
g2090
ag2091
asg30
Nsg2090
g0
(g66
g2
Ntp2269
Rp2270
(dp2271
g29
I00
sg35
I01
sg36
I00
sg37
VSiStripDetVOffRcd
p2272
sbsg2091
g0
(g66
g2
Ntp2273
Rp2274
(dp2275
g29
I00
sg35
I01
sg36
I00
sg37
g45
sbsbag0
(g51
g2
Ntp2276
Rp2277
(dp2278
g29
I00
sg35
I01
sg36
I00
sg19
(lp2279
g2090
ag2091
asg30
Nsg2090
g0
(g66
g2
Ntp2280
Rp2281
(dp2282
g29
I00
sg35
I01
sg36
I00
sg37
VSiStripDetCablingRcd
p2283
sbsg2091
g0
(g66
g2
Ntp2284
Rp2285
(dp2286
g29
I00
sg35
I01
sg36
I00
sg37
g45
sbsbag0
(g51
g2
Ntp2287
Rp2288
(dp2289
g29
I00
sg35
I01
sg36
I00
sg19
(lp2290
g2090
ag2091
asg30
Nsg2090
g0
(g66
g2
Ntp2291
Rp2292
(dp2293
g29
I00
sg35
I01
sg36
I00
sg37
VRunInfoRcd
p2294
sbsg2091
g0
(g66
g2
Ntp2295
Rp2296
(dp2297
g29
I00
sg35
I01
sg36
I00
sg37
g45
sbsbag0
(g51
g2
Ntp2298
Rp2299
(dp2300
g29
I00
sg35
I01
sg36
I00
sg19
(lp2301
g2090
ag2091
asg30
Nsg2090
g0
(g66
g2
Ntp2302
Rp2303
(dp2304
g29
I00
sg35
I01
sg36
I00
sg37
VSiStripBadChannelRcd
p2305
sbsg2091
g0
(g66
g2
Ntp2306
Rp2307
(dp2308
g29
I00
sg35
I01
sg36
I00
sg37
g45
sbsbag0
(g51
g2
Ntp2309
Rp2310
(dp2311
g29
I00
sg35
I01
sg36
I00
sg19
(lp2312
g2090
ag2091
asg30
Nsg2090
g0
(g66
g2
Ntp2313
Rp2314
(dp2315
g29
I00
sg35
I01
sg36
I00
sg37
VSiStripBadFiberRcd
p2316
sbsg2091
g0
(g66
g2
Ntp2317
Rp2318
(dp2319
g29
I00
sg35
I01
sg36
I00
sg37
g45
sbsbag0
(g51
g2
Ntp2320
Rp2321
(dp2322
g29
I00
sg35
I01
sg36
I00
sg19
(lp2323
g2090
ag2091
asg30
Nsg2090
g0
(g66
g2
Ntp2324
Rp2325
(dp2326
g29
I00
sg35
I01
sg36
I00
sg37
VSiStripBadModuleRcd
p2327
sbsg2091
g0
(g66
g2
Ntp2328
Rp2329
(dp2330
g29
I00
sg35
I01
sg36
I00
sg37
g45
sbsbag0
(g51
g2
Ntp2331
Rp2332
(dp2333
g29
I00
sg35
I01
sg36
I00
sg19
(lp2334
g2090
ag2091
asg30
Nsg2090
g0
(g66
g2
Ntp2335
Rp2336
(dp2337
g29
I00
sg35
I01
sg36
I00
sg37
VSiStripBadStripRcd
p2338
sbsg2091
g0
(g66
g2
Ntp2339
Rp2340
(dp2341
g29
I00
sg35
I01
sg36
I00
sg37
g45
sbsbatp2342
Rp2343
(dp2344
g29
I00
sg35
I01
sg36
I00
sg240
I1
sbsg2257
g0
(g31
g2
Ntp2345
Rp2346
(dp2347
g29
I00
sg35
I01
sg36
I00
sg37
I00
sbsg2258
g0
(g71
g2
Ntp2348
Rp2349
(dp2350
g29
I00
sg35
I01
sg36
I00
sg37
F0.3
sbsg2259
g0
(g31
g2
Ntp2351
Rp2352
(dp2353
g29
I00
sg35
I01
sg36
I00
sg37
I00
sbsg2260
g0
(g31
g2
Ntp2354
Rp2355
(dp2356
g29
I00
sg35
I01
sg36
I00
sg37
I00
sbsg247
g272
sg249
I55
sg250
g2251
sbsVsistripconn
p2357
g0
(g1831
g2
Ntp2358
Rp2359
(dp2360
g17
VSiStripConnectivity
p2361
sg19
(lp2362
sg29
I00
sg30
Nsg36
I00
sg247
g272
sg249
I55
sg250
g2357
sbsVstripCPEESProducer
p2363
g0
(g1831
g2
Ntp2364
Rp2365
(dp2366
g17
g1878
sg19
(lp2367
g1861
ag1880
ag1881
asg29
I00
sg30
Nsg1861
g0
(g66
g2
Ntp2368
Rp2369
(dp2370
g29
I00
sg35
I01
sg36
I00
sg37
VstripCPE
p2371
sbsg36
I00
sg1880
g0
(g66
g2
Ntp2372
Rp2373
(dp2374
g29
I00
sg35
I01
sg36
I00
sg37
VSimpleStripCPE
p2375
sbsg1881
g0
(g51
g2
Ntp2376
Rp2377
(dp2378
g29
I00
sg35
I01
sg36
I00
sg19
(lp2379
sg30
Nsbsg247
g272
sg249
I55
sg250
g2363
sbsVCSCGeometryESModule
p2380
g0
(g1831
g2
Ntp2381
Rp2382
(dp2383
g17
g2380
sg19
(lp2384
VfromDDD
p2385
aVfromDD4hep
p2386
aValignmentsLabel
p2387
ag903
aVuseRealWireGeometry
p2388
aVuseOnlyWiresInME1a
p2389
aVuseGangedStripsInME1a
p2390
aVuseCentreTIOffsets
p2391
aVapplyAlignment
p2392
aVdebugV
p2393
asg29
I00
sg30
Nsg2385
g0
(g31
g2
Ntp2394
Rp2395
(dp2396
g29
I00
sg35
I01
sg36
I00
sg37
I00
sbsg36
I00
sg2386
g0
(g31
g2
Ntp2397
Rp2398
(dp2399
g29
I00
sg35
I01
sg36
I00
sg37
I00
sbsg2387
g0
(g66
g2
Ntp2400
Rp2401
(dp2402
g29
I00
sg35
I01
sg36
I00
sg37
g45
sbsg903
g0
(g66
g2
Ntp2403
Rp2404
(dp2405
g29
I00
sg35
I01
sg36
I00
sg37
g45
sbsg2388
g0
(g31
g2
Ntp2406
Rp2407
(dp2408
g29
I00
sg35
I01
sg36
I00
sg37
I01
sbsg2389
g0
(g31
g2
Ntp2409
Rp2410
(dp2411
g29
I00
sg35
I01
sg36
I00
sg37
I00
sbsg2390
g0
(g31
g2
Ntp2412
Rp2413
(dp2414
g29
I00
sg35
I01
sg36
I00
sg37
I01
sbsg2391
g0
(g31
g2
Ntp2415
Rp2416
(dp2417
g29
I00
sg35
I01
sg36
I00
sg37
I00
sbsg2392
g0
(g31
g2
Ntp2418
Rp2419
(dp2420
g29
I00
sg35
I01
sg36
I00
sg37
I01
sbsg2393
g0
(g31
g2
Ntp2421
Rp2422
(dp2423
g29
I00
sg35
I00
sg36
I00
sg37
I00
sbsg247
g272
sg249
I55
sg250
g2380
sbsVCaloGeometryBuilder
p2424
g0
(g1831
g2
Ntp2425
Rp2426
(dp2427
g17
g2424
sg19
(lp2428
VSelectedCalos
p2429
asg29
I00
sg30
Nsg2429
g0
(g262
g184
(lp2430
VHCAL
p2431
aVZDC
p2432
aVCASTOR
p2433
aVEcalBarrel
p2434
aVEcalEndcap
p2435
aVEcalPreshower
p2436
aVTOWER
p2437
atp2438
Rp2439
(dp2440
g29
I00
sg35
I01
sg36
I00
sg240
I1
sbsg36
I00
sg247
g272
sg249
I55
sg250
g2424
sbsVCaloTopologyBuilder
p2441
g0
(g1831
g2
Ntp2442
Rp2443
(dp2444
g17
g2441
sg19
(lp2445
sg29
I00
sg30
Nsg36
I00
sg247
g272
sg249
I55
sg250
g2441
sbsVCaloTowerGeometryFromDBEP
p2446
g0
(g1831
g2
Ntp2447
Rp2448
(dp2449
g17
g2446
sg19
(lp2450
g2392
asg29
I00
sg30
Nsg2392
g0
(g31
g2
Ntp2451
Rp2452
(dp2453
g29
I00
sg35
I01
sg36
I00
sg37
I00
sbsg36
I00
sg247
g272
sg249
I55
sg250
g2446
sbsVCaloTowerTopologyEP
p2454
g0
(g1831
g2
Ntp2455
Rp2456
(dp2457
g17
g2454
sg19
(lp2458
sg29
I00
sg30
Nsg36
I00
sg247
g272
sg249
I55
sg250
g2454
sbsVCastorGeometryFromDBEP
p2459
g0
(g1831
g2
Ntp2460
Rp2461
(dp2462
g17
g2459
sg19
(lp2463
g2392
asg29
I00
sg30
Nsg2392
g0
(g31
g2
Ntp2464
Rp2465
(dp2466
g29
I00
sg35
I01
sg36
I00
sg37
I00
sbsg36
I00
sg247
g272
sg249
I55
sg250
g2459
sbsVDTGeometryESModule
p2467
g0
(g1831
g2
Ntp2468
Rp2469
(dp2470
g17
g2467
sg19
(lp2471
g2385
ag2386
aVDDDetector
p2472
ag2387
ag903
aVattribute
p2473
aVvalue
p2474
ag2392
asg29
I00
sg30
Nsg2385
g0
(g31
g2
Ntp2475
Rp2476
(dp2477
g29
I00
sg35
I01
sg36
I01
sg37
I00
sbsg36
I01
sg2386
g0
(g31
g2
Ntp2478
Rp2479
(dp2480
g29
I00
sg35
I01
sg36
I00
sg37
I00
sbsg2472
g0
(cFWCore.ParameterSet.Types
ESInputTag
p2481
g2
Ntp2482
Rp2483
(dp2484
g29
I00
sg35
I01
sg36
I00
sV_ESInputTag__moduleLabel
p2485
g45
sV_ESInputTag__data
p2486
g45
sbsg2387
g0
(g66
g2
Ntp2487
Rp2488
(dp2489
g29
I00
sg35
I01
sg36
I00
sg37
g45
sbsg903
g0
(g66
g2
Ntp2490
Rp2491
(dp2492
g29
I00
sg35
I01
sg36
I00
sg37
g45
sbsg2473
g0
(g66
g2
Ntp2493
Rp2494
(dp2495
g29
I00
sg35
I01
sg36
I00
sg37
VMuStructure
p2496
sbsg2474
g0
(g66
g2
Ntp2497
Rp2498
(dp2499
g29
I00
sg35
I01
sg36
I00
sg37
VMuonBarrelDT
p2500
sbsg2392
g0
(g31
g2
Ntp2501
Rp2502
(dp2503
g29
I00
sg35
I01
sg36
I00
sg37
I01
sbsg247
g272
sg249
I55
sg250
g2467
sbsVEcalBarrelGeometryFromDBEP
p2504
g0
(g1831
g2
Ntp2505
Rp2506
(dp2507
g17
g2504
sg19
(lp2508
g2392
asg29
I00
sg30
Nsg2392
g0
(g31
g2
Ntp2509
Rp2510
(dp2511
g29
I00
sg35
I01
sg36
I01
sg37
I01
sbsg36
I01
sg247
g272
sg249
I55
sg250
g2504
sbsVEcalElectronicsMappingBuilder
p2512
g0
(g1831
g2
Ntp2513
Rp2514
(dp2515
g17
g2512
sg19
(lp2516
sg29
I00
sg30
Nsg36
I00
sg247
g272
sg249
I55
sg250
g2512
sbsVEcalEndcapGeometryFromDBEP
p2517
g0
(g1831
g2
Ntp2518
Rp2519
(dp2520
g17
g2517
sg19
(lp2521
g2392
asg29
I00
sg30
Nsg2392
g0
(g31
g2
Ntp2522
Rp2523
(dp2524
g29
I00
sg35
I01
sg36
I01
sg37
I01
sbsg36
I01
sg247
g272
sg249
I55
sg250
g2517
sbsVEcalPreshowerGeometryFromDBEP
p2525
g0
(g1831
g2
Ntp2526
Rp2527
(dp2528
g17
g2525
sg19
(lp2529
g2392
asg29
I00
sg30
Nsg2392
g0
(g31
g2
Ntp2530
Rp2531
(dp2532
g29
I00
sg35
I01
sg36
I01
sg37
I01
sbsg36
I01
sg247
g272
sg249
I55
sg250
g2525
sbsVEcalTrigTowerConstituentsMapBuilder
p2533
g0
(g1831
g2
Ntp2534
Rp2535
(dp2536
g17
g2533
sg19
(lp2537
VMapFile
p2538
asg29
I00
sg30
Nsg2538
g0
(g66
g2
Ntp2539
Rp2540
(dp2541
g29
I00
sg35
I00
sg36
I00
sg37
VGeometry/EcalMapping/data/EndCap_TTMap.txt
p2542
sbsg36
I00
sg247
g272
sg249
I55
sg250
g2533
sbsVGlobalTrackingGeometryESProducer
p2543
g0
(g1831
g2
Ntp2544
Rp2545
(dp2546
g17
g2543
sg19
(lp2547
sg29
I00
sg30
Nsg36
I00
sg247
g272
sg249
I55
sg250
g2543
sbsVHcalAlignmentEP
p2548
g0
(g1831
g2
Ntp2549
Rp2550
(dp2551
g17
g2548
sg19
(lp2552
sg29
I00
sg30
Nsg36
I00
sg247
g272
sg249
I55
sg250
g2548
sbsVHcalGeometryFromDBEP
p2553
g0
(g1831
g2
Ntp2554
Rp2555
(dp2556
g17
g2553
sg19
(lp2557
g2392
asg29
I00
sg30
Nsg2392
g0
(g31
g2
Ntp2558
Rp2559
(dp2560
g29
I00
sg35
I01
sg36
I01
sg37
I01
sbsg36
I01
sg247
g272
sg249
I55
sg250
g2553
sbsVMuonDetLayerGeometryESProducer
p2561
g0
(g1831
g2
Ntp2562
Rp2563
(dp2564
g17
g2561
sg19
(lp2565
sg29
I00
sg30
Nsg36
I00
sg247
g272
sg249
I55
sg250
g2561
sbsVRPCGeometryESModule
p2566
g0
(g1831
g2
Ntp2567
Rp2568
(dp2569
g17
g2566
sg19
(lp2570
g2385
ag2386
asg29
I00
sg30
Nsg2385
g0
(g31
g2
Ntp2571
Rp2572
(dp2573
g29
I00
sg35
I00
sg36
I00
sg37
I00
sbsg36
I00
sg2386
g0
(g31
g2
Ntp2574
Rp2575
(dp2576
g29
I00
sg35
I00
sg36
I00
sg37
I00
sbsg247
g272
sg249
I55
sg250
g2566
sbsVTrackerRecoGeometryESProducer
p2577
g0
(g1831
g2
Ntp2578
Rp2579
(dp2580
g17
g2577
sg19
(lp2581
VusePhase2Stacks
p2582
asg29
I00
sg30
Nsg2582
g0
(g31
g2
Ntp2583
Rp2584
(dp2585
g29
I00
sg35
I01
sg36
I00
sg37
I00
sbsg36
I00
sg247
g272
sg249
I55
sg250
g2577
sbsVZdcGeometryFromDBEP
p2586
g0
(g1831
g2
Ntp2587
Rp2588
(dp2589
g17
g2586
sg19
(lp2590
g2392
asg29
I00
sg30
Nsg2392
g0
(g31
g2
Ntp2591
Rp2592
(dp2593
g29
I00
sg35
I01
sg36
I00
sg37
I00
sbsg36
I00
sg247
g272
sg249
I55
sg250
g2586
sbsVfakeForIdealAlignment
p2594
g0
(g1831
g2
Ntp2595
Rp2596
(dp2597
g17
VFakeAlignmentProducer
p2598
sg19
(lp2599
g903
asg29
I00
sg30
Nsg903
g0
(g66
g2
Ntp2600
Rp2601
(dp2602
g29
I00
sg35
I01
sg36
I01
sg37
VfakeForIdeal
p2603
sbsg36
I01
sg247
V/cvmfs/cms.cern.ch/el8_amd64_gcc12/cms/cmssw/CMSSW_14_0_10/src/Alignment/CommonAlignmentProducer/python/fakeForIdealAlignmentProducer_cfi.py
p2604
sg249
I5
sg250
g2594
sbsVhcalDDDRecConstants
p2605
g0
(g1831
g2
Ntp2606
Rp2607
(dp2608
g17
VHcalDDDRecConstantsESModule
p2609
sg19
(lp2610
g903
asg29
I00
sg30
Nsg903
g0
(g66
g2
Ntp2611
Rp2612
(dp2613
g29
I00
sg35
I01
sg36
I00
sg37
g45
sbsg36
I00
sg247
g272
sg249
I55
sg250
g2605
sbsVhcalDDDSimConstants
p2614
g0
(g1831
g2
Ntp2615
Rp2616
(dp2617
g17
VHcalDDDSimConstantsESModule
p2618
sg19
(lp2619
g903
asg29
I00
sg30
Nsg903
g0
(g66
g2
Ntp2620
Rp2621
(dp2622
g29
I00
sg35
I01
sg36
I00
sg37
g45
sbsg36
I00
sg247
g272
sg249
I55
sg250
g2614
sbsVhcalTopologyIdeal
p2623
g0
(g1831
g2
Ntp2624
Rp2625
(dp2626
g17
VHcalTopologyIdealEP
p2627
sg19
(lp2628
VExclude
p2629
aVMergePosition
p2630
ag903
asg29
I00
sg30
Nsg2629
g0
(g66
g2
Ntp2631
Rp2632
(dp2633
g29
I00
sg35
I00
sg36
I00
sg37
g45
sbsg36
I00
sg2630
g0
(g31
g2
Ntp2634
Rp2635
(dp2636
g29
I00
sg35
I00
sg36
I00
sg37
I00
sbsg903
g0
(g66
g2
Ntp2637
Rp2638
(dp2639
g29
I00
sg35
I01
sg36
I00
sg37
g45
sbsg247
g272
sg249
I55
sg250
g2623
sbsVidealForDigiCSCGeometry
p2640
g0
(g1831
g2
Ntp2641
Rp2642
(dp2643
g17
g2380
sg19
(lp2644
g2385
ag2386
ag2387
ag903
ag2388
ag2389
ag2390
ag2391
ag2392
ag2393
asg29
I00
sg30
Nsg2385
g0
(g31
g2
Ntp2645
Rp2646
(dp2647
g29
I00
sg35
I01
sg36
I00
sg37
I00
sbsg36
I01
sg2386
g0
(g31
g2
Ntp2648
Rp2649
(dp2650
g29
I00
sg35
I01
sg36
I00
sg37
I00
sbsg2387
g0
(g66
g2
Ntp2651
Rp2652
(dp2653
g29
I00
sg35
I01
sg36
I01
sg37
g2603
sbsg903
g0
(g66
g2
Ntp2654
Rp2655
(dp2656
g29
I00
sg35
I01
sg36
I01
sg37
VidealForDigi
p2657
sbsg2388
g0
(g31
g2
Ntp2658
Rp2659
(dp2660
g29
I00
sg35
I01
sg36
I00
sg37
I01
sbsg2389
g0
(g31
g2
Ntp2661
Rp2662
(dp2663
g29
I00
sg35
I01
sg36
I00
sg37
I00
sbsg2390
g0
(g31
g2
Ntp2664
Rp2665
(dp2666
g29
I00
sg35
I01
sg36
I00
sg37
I01
sbsg2391
g0
(g31
g2
Ntp2667
Rp2668
(dp2669
g29
I00
sg35
I01
sg36
I00
sg37
I00
sbsg2392
g0
(g31
g2
Ntp2670
Rp2671
(dp2672
g29
I00
sg35
I01
sg36
I01
sg37
I00
sbsg2393
g0
(g31
g2
Ntp2673
Rp2674
(dp2675
g29
I00
sg35
I00
sg36
I00
sg37
I00
sbsg247
V/cvmfs/cms.cern.ch/el8_amd64_gcc12/cms/cmssw/CMSSW_14_0_10/src/Geometry/CSCGeometryBuilder/python/idealForDigiCscGeometryDB_cff.py
p2676
sg249
I8
sg250
g2640
sbsVidealForDigiDTGeometry
p2677
g0
(g1831
g2
Ntp2678
Rp2679
(dp2680
g17
g2467
sg19
(lp2681
g2385
ag2386
ag2472
ag2387
ag903
ag2473
ag2474
ag2392
asg29
I00
sg30
Nsg2385
g0
(g31
g2
Ntp2682
Rp2683
(dp2684
g29
I00
sg35
I01
sg36
I01
sg37
I00
sbsg36
I01
sg2386
g0
(g31
g2
Ntp2685
Rp2686
(dp2687
g29
I00
sg35
I01
sg36
I00
sg37
I00
sbsg2472
g0
(g2481
g2
Ntp2688
Rp2689
(dp2690
g29
I00
sg35
I01
sg36
I00
sg2485
g45
sg2486
g45
sbsg2387
g0
(g66
g2
Ntp2691
Rp2692
(dp2693
g29
I00
sg35
I01
sg36
I01
sg37
g2603
sbsg903
g0
(g66
g2
Ntp2694
Rp2695
(dp2696
g29
I00
sg35
I01
sg36
I01
sg37
g2657
sbsg2473
g0
(g66
g2
Ntp2697
Rp2698
(dp2699
g29
I00
sg35
I01
sg36
I00
sg37
g2496
sbsg2474
g0
(g66
g2
Ntp2700
Rp2701
(dp2702
g29
I00
sg35
I01
sg36
I00
sg37
g2500
sbsg2392
g0
(g31
g2
Ntp2703
Rp2704
(dp2705
g29
I00
sg35
I01
sg36
I01
sg37
I00
sbsg247
V/cvmfs/cms.cern.ch/el8_amd64_gcc12/cms/cmssw/CMSSW_14_0_10/src/Geometry/DTGeometryBuilder/python/idealForDigiDtGeometryDB_cff.py
p2706
sg249
I8
sg250
g2677
sbsVidealForDigiTrackerGeometry
p2707
g0
(g1831
g2
Ntp2708
Rp2709
(dp2710
g17
VTrackerDigiGeometryESModule
p2711
sg19
(lp2712
g903
ag2385
ag2392
ag2387
asg29
I00
sg30
Nsg903
g0
(g66
g2
Ntp2713
Rp2714
(dp2715
g29
I00
sg35
I01
sg36
I01
sg37
g2657
sbsg36
I01
sg2385
g0
(g31
g2
Ntp2716
Rp2717
(dp2718
g29
I00
sg35
I01
sg36
I00
sg37
I00
sbsg2392
g0
(g31
g2
Ntp2719
Rp2720
(dp2721
g29
I00
sg35
I01
sg36
I01
sg37
I00
sbsg2387
g0
(g66
g2
Ntp2722
Rp2723
(dp2724
g29
I00
sg35
I01
sg36
I01
sg37
g2603
sbsg247
V/cvmfs/cms.cern.ch/el8_amd64_gcc12/cms/cmssw/CMSSW_14_0_10/src/Geometry/TrackerGeometryBuilder/python/idealForDigiTrackerGeometryDB_cff.py
p2725
sg249
I8
sg250
g2707
sbsVmuonGeometryConstants
p2726
g0
(g1831
g2
Ntp2727
Rp2728
(dp2729
g17
VMuonGeometryConstantsESModule
p2730
sg19
(lp2731
g2386
ag903
asg29
I00
sg30
Nsg2386
g0
(g31
g2
Ntp2732
Rp2733
(dp2734
g29
I00
sg35
I01
sg36
I00
sg37
I00
sbsg36
I00
sg903
g0
(g66
g2
Ntp2735
Rp2736
(dp2737
g29
I00
sg35
I01
sg36
I00
sg37
g45
sbsg247
g272
sg249
I55
sg250
g2726
sbsVtrackerGeometryDB
p2738
g0
(g1831
g2
Ntp2739
Rp2740
(dp2741
g17
g2711
sg19
(lp2742
g903
ag2385
ag2392
ag2387
asg29
I00
sg30
Nsg903
g0
(g66
g2
Ntp2743
Rp2744
(dp2745
g29
I00
sg35
I01
sg36
I00
sg37
g45
sbsg36
I00
sg2385
g0
(g31
g2
Ntp2746
Rp2747
(dp2748
g29
I00
sg35
I01
sg36
I00
sg37
I00
sbsg2392
g0
(g31
g2
Ntp2749
Rp2750
(dp2751
g29
I00
sg35
I01
sg36
I00
sg37
I01
sbsg2387
g0
(g66
g2
Ntp2752
Rp2753
(dp2754
g29
I00
sg35
I01
sg36
I00
sg37
g45
sbsg247
g272
sg249
I55
sg250
g2738
sbsVtrackerNumberingGeometryDB
p2755
g0
(g1831
g2
Ntp2756
Rp2757
(dp2758
g17
VTrackerGeometricDetESModule
p2759
sg19
(lp2760
g2385
ag2386
ag903
asg29
I00
sg30
Nsg2385
g0
(g31
g2
Ntp2761
Rp2762
(dp2763
g29
I00
sg35
I01
sg36
I00
sg37
I00
sbsg36
I00
sg2386
g0
(g31
g2
Ntp2764
Rp2765
(dp2766
g29
I00
sg35
I01
sg36
I00
sg37
I00
sbsg903
g0
(g66
g2
Ntp2767
Rp2768
(dp2769
g29
I00
sg35
I01
sg36
I00
sg37
g45
sbsg247
g272
sg249
I55
sg250
g2755
sbsVtrackerTopology
p2770
g0
(g1831
g2
Ntp2771
Rp2772
(dp2773
g17
VTrackerTopologyEP
p2774
sg19
(lp2775
g903
asg29
I00
sg30
Nsg903
g0
(g66
g2
Ntp2776
Rp2777
(dp2778
g29
I00
sg35
I01
sg36
I00
sg37
g45
sbsg36
I00
sg247
g272
sg249
I55
sg250
g2770
sbsVParabolicParametrizedMagneticFieldProducer
p2779
g0
(g1831
g2
Ntp2780
Rp2781
(dp2782
g17
VAutoParametrizedMagneticFieldProducer
p2783
sg19
(lp2784
Vversion
p2785
ag190
aVvalueOverride
p2786
asg29
I00
sg30
Nsg2785
g0
(g66
g2
Ntp2787
Rp2788
(dp2789
g29
I00
sg35
I01
sg36
I00
sg37
VParabolic
p2790
sbsg36
I01
sg190
g0
(g66
g2
Ntp2791
Rp2792
(dp2793
g29
I00
sg35
I00
sg36
I01
sg37
VParabolicMf
p2794
sbsg2786
g0
(g75
g2
Ntp2795
Rp2796
(dp2797
g29
I00
sg35
I01
sg36
I01
sg37
I18268
sbsg247
g272
sg249
I55
sg250
g2779
sbsVVolumeBasedMagneticFieldESProducer
p2798
g0
(g1831
g2
Ntp2799
Rp2800
(dp2801
g17
VVolumeBasedMagneticFieldESProducerFromDB
p2802
sg19
(lp2803
g190
aVdebugBuilder
p2804
ag2786
asg29
I00
sg30
Nsg190
g0
(g66
g2
Ntp2805
Rp2806
(dp2807
g29
I00
sg35
I00
sg36
I00
sg37
g45
sbsg36
I01
sg2804
g0
(g31
g2
Ntp2808
Rp2809
(dp2810
g29
I00
sg35
I00
sg36
I00
sg37
I00
sbsg2786
g0
(g75
g2
Ntp2811
Rp2812
(dp2813
g29
I00
sg35
I01
sg36
I01
sg37
I18268
sbsg247
g272
sg249
I55
sg250
g2798
sbsVTransientTrackBuilderESProducer
p2814
g0
(g1831
g2
Ntp2815
Rp2816
(dp2817
g17
g2814
sg19
(lp2818
g1861
asg29
I00
sg30
Nsg1861
g0
(g66
g2
Ntp2819
Rp2820
(dp2821
g29
I00
sg35
I01
sg36
I00
sg37
VTransientTrackBuilder
p2822
sbsg36
I00
sg247
g272
sg249
I55
sg250
g2814
sbssV_Process__esprefers
p2823
(dp2824
Ves_prefer_hcalHardcode
p2825
g0
(cFWCore.ParameterSet.Modules
ESPrefer
p2826
g2
Ntp2827
Rp2828
(dp2829
g17
g1072
sg19
(lp2830
sg29
I00
sg30
Nsg36
I00
sg247
g272
sg249
I91
sV_targetLabel
p2831
g1068
sg250
g2825
sbssV_Process__aliases
p2832
(dp2833
sV_Process__psets
p2834
(dp2835
VmaxLuminosityBlocks
p2836
g0
(g51
g2
Ntp2837
Rp2838
(dp2839
g29
I00
sg35
I00
sg36
I00
sg19
(lp2840
Vinput
p2841
asg30
Nsg2841
g0
(g75
g2
Ntp2842
Rp2843
(dp2844
g29
I00
sg35
I00
sg36
I00
sg37
I-1
sbsg250
g2836
sbsVCondDB
p2845
g0
(g51
g2
Ntp2846
Rp2847
(dp2848
g29
I00
sg35
I01
sg36
I00
sg19
(lp2849
g825
ag826
asg30
Nsg825
g0
(g51
g2
Ntp2850
Rp2851
(dp2852
g29
I00
sg35
I01
sg36
I00
sg19
(lp2853
g841
ag842
ag843
ag844
ag845
asg30
Nsg841
g0
(g66
g2
Ntp2854
Rp2855
(dp2856
g29
I00
sg35
I00
sg36
I00
sg37
g45
sbsg842
g0
(g75
g2
Ntp2857
Rp2858
(dp2859
g29
I00
sg35
I00
sg36
I00
sg37
I0
sbsg843
g0
(g66
g2
Ntp2860
Rp2861
(dp2862
g29
I00
sg35
I00
sg36
I00
sg37
g45
sbsg844
g0
(g75
g2
Ntp2863
Rp2864
(dp2865
g29
I00
sg35
I00
sg36
I00
sg37
I0
sbsg845
g0
(g75
g2
Ntp2866
Rp2867
(dp2868
g29
I00
sg35
I00
sg36
I00
sg37
I0
sbsbsg826
g0
(g66
g2
Ntp2869
Rp2870
(dp2871
g29
I00
sg35
I01
sg36
I00
sg37
g45
sbsg250
g2845
sbsg1082
g1134
sVmaxEvents
p2872
g0
(g51
g2
Ntp2873
Rp2874
(dp2875
g29
I00
sg35
I00
sg36
I01
sg19
(lp2876
g2841
ag770
asg30
Nsg2841
g0
(g571
g2
Ntp2877
Rp2878
(dp2879
g29
I00
sg35
I00
sg36
I00
sg575
g75
sg594
g0
(g75
g2
Ntp2880
Rp2881
(dp2882
g29
I00
sg35
I00
sg36
I00
sg37
I-1
sbsbsg770
g0
(g571
g2
Ntp2883
Rp2884
(dp2885
g29
I00
sg35
I00
sg36
I00
sg575
g0
(cFWCore.ParameterSet.Types
_AllowedParameterTypes
p2886
g2
Ntp2887
Rp2888
(dp2889
V_AllowedParameterTypes__types
p2890
(g75
g51
tp2891
sV_default
p2892
NsV__name__
p2893
Vallowed(cms.int32,cms.PSet)
p2894
sbsg594
Nsbsg250
g2872
sbsVDA_vectParameters
p2895
g0
(g51
g2
Ntp2896
Rp2897
(dp2898
g29
I00
sg35
I01
sg36
I00
sg19
(lp2899
g56
ag105
asg30
Nsg56
g0
(g66
g2
Ntp2900
Rp2901
(dp2902
g29
I00
sg35
I01
sg36
I00
sg37
g109
sbsg105
g0
(g51
g2
Ntp2903
Rp2904
(dp2905
g29
I00
sg35
I01
sg36
I00
sg19
(lp2906
g114
ag115
ag116
ag117
ag118
ag119
ag120
ag121
ag122
ag123
ag124
ag125
ag126
ag127
ag128
ag129
ag130
asg30
Nsg114
g0
(g71
g2
Ntp2907
Rp2908
(dp2909
g29
I00
sg35
I01
sg36
I00
sg37
F0.6
sbsg115
g0
(g71
g2
Ntp2910
Rp2911
(dp2912
g29
I00
sg35
I01
sg36
I00
sg37
F4.0
sbsg116
g0
(g71
g2
Ntp2913
Rp2914
(dp2915
g29
I00
sg35
I01
sg36
I00
sg37
F0.01
sbsg117
g0
(g71
g2
Ntp2916
Rp2917
(dp2918
g29
I00
sg35
I01
sg36
I00
sg37
F0.001
sbsg118
g0
(g75
g2
Ntp2919
Rp2920
(dp2921
g29
I00
sg35
I01
sg36
I00
sg37
I0
sbsg119
g0
(g71
g2
Ntp2922
Rp2923
(dp2924
g29
I00
sg35
I01
sg36
I00
sg37
F2.0
sbsg120
g0
(g71
g2
Ntp2925
Rp2926
(dp2927
g29
I00
sg35
I01
sg36
I00
sg37
F2.0
sbsg121
g0
(g71
g2
Ntp2928
Rp2929
(dp2930
g29
I00
sg35
I01
sg36
I00
sg37
F0.5
sbsg122
g0
(g71
g2
Ntp2931
Rp2932
(dp2933
g29
I00
sg35
I01
sg36
I00
sg37
F0.006
sbsg123
g0
(g71
g2
Ntp2934
Rp2935
(dp2936
g29
I00
sg35
I01
sg36
I00
sg37
F3.0
sbsg124
g0
(g71
g2
Ntp2937
Rp2938
(dp2939
g29
I00
sg35
I01
sg36
I00
sg37
F3.0
sbsg125
g0
(g71
g2
Ntp2940
Rp2941
(dp2942
g29
I00
sg35
I01
sg36
I00
sg37
F0.01
sbsg126
g0
(g71
g2
Ntp2943
Rp2944
(dp2945
g29
I00
sg35
I01
sg36
I00
sg37
F0.8
sbsg127
g0
(g71
g2
Ntp2946
Rp2947
(dp2948
g29
I00
sg35
I01
sg36
I00
sg37
F0.0
sbsg128
g0
(g31
g2
Ntp2949
Rp2950
(dp2951
g29
I00
sg35
I01
sg36
I00
sg37
I00
sbsg129
g0
(g176
g2
Ntp2952
Rp2953
(dp2954
g29
I00
sg35
I01
sg36
I00
sg37
I10000
sbsg130
g0
(g71
g2
Ntp2955
Rp2956
(dp2957
g29
I00
sg35
I01
sg36
I00
sg37
F0.0
sbsbsg250
g2895
sbsVoptions
p2958
g0
(g51
g2
Ntp2959
Rp2960
(dp2961
g29
I00
sg35
I00
sg36
I01
sg19
(lp2962
VnumberOfThreads
p2963
aVnumberOfStreams
p2964
aVnumberOfConcurrentRuns
p2965
aVnumberOfConcurrentLuminosityBlocks
p2966
aVeventSetup
p2967
aVaccelerators
p2968
aVwantSummary
p2969
aVfileMode
p2970
aVforceEventSetupCacheClearOnNewRun
p2971
aVthrowIfIllegalParameter
p2972
aVprintDependencies
p2973
aVdeleteNonConsumedUnscheduledModules
p2974
aVsizeOfStackForThreadsInKB
p2975
aVRethrow
p2976
aVTryToContinue
p2977
aVIgnoreCompletely
p2978
aVmodulesToCallForTryToContinue
p2979
aVcanDeleteEarly
p2980
aVholdsReferencesToDeleteEarly
p2981
aVmodulesToIgnoreForDeleteEarly
p2982
aVdumpOptions
p2983
aVallowUnscheduled
p2984
aVemptyRunLumiMode
p2985
aVmakeTriggerResults
p2986
asg30
Nsg2963
g0
(g176
g2
Ntp2987
Rp2988
(dp2989
g29
I00
sg35
I00
sg36
I00
sg37
I1
sbsg2964
g0
(g176
g2
Ntp2990
Rp2991
(dp2992
g29
I00
sg35
I00
sg36
I00
sg37
I0
sbsg2965
g0
(g176
g2
Ntp2993
Rp2994
(dp2995
g29
I00
sg35
I00
sg36
I00
sg37
I1
sbsg2966
g0
(g176
g2
Ntp2996
Rp2997
(dp2998
g29
I00
sg35
I00
sg36
I00
sg37
I0
sbsg2967
g0
(g51
g2
Ntp2999
Rp3000
(dp3001
g29
I00
sg35
I00
sg36
I00
sg19
(lp3002
VnumberOfConcurrentIOVs
p3003
aVforceNumberOfConcurrentIOVs
p3004
asg30
Nsg3003
g0
(g176
g2
Ntp3005
Rp3006
(dp3007
g29
I00
sg35
I00
sg36
I00
sg37
I0
sbsg3004
g0
(g51
g2
Ntp3008
Rp3009
(dp3010
g29
I00
sg35
I00
sg36
I00
sg19
(lp3011
sg30
g0
(cFWCore.ParameterSet.Types
_RequiredParameter
p3012
g2
Ntp3013
Rp3014
(dp3015
g29
I00
sg35
I00
sg36
I00
sg575
g176
sg594
Nsbsbsbsg2968
g0
(g262
g184
(lp3016
V*
p3017
atp3018
Rp3019
(dp3020
g29
I00
sg35
I00
sg36
I00
sg240
I1
sbsg2969
g0
(g31
g2
Ntp3021
Rp3022
(dp3023
g29
I00
sg35
I00
sg36
I00
sg37
I00
sbsg2970
g0
(g66
g2
Ntp3024
Rp3025
(dp3026
g29
I00
sg35
I00
sg36
I00
sg37
VFULLMERGE
p3027
sbsg2971
g0
(g31
g2
Ntp3028
Rp3029
(dp3030
g29
I00
sg35
I00
sg36
I00
sg37
I00
sbsg2972
g0
(g31
g2
Ntp3031
Rp3032
(dp3033
g29
I00
sg35
I00
sg36
I00
sg37
I01
sbsg2973
g0
(g31
g2
Ntp3034
Rp3035
(dp3036
g29
I00
sg35
I00
sg36
I00
sg37
I00
sbsg2974
g0
(g31
g2
Ntp3037
Rp3038
(dp3039
g29
I00
sg35
I00
sg36
I00
sg37
I01
sbsg2975
g0
(g571
g2
Ntp3040
Rp3041
(dp3042
g29
I00
sg35
I00
sg36
I00
sg575
g176
sg594
Nsbsg2976
g0
(g262
g184
(lp3043
tp3044
Rp3045
(dp3046
g29
I00
sg35
I00
sg36
I00
sg240
I1
sbsg2977
g0
(g262
g184
(lp3047
tp3048
Rp3049
(dp3050
g29
I00
sg35
I00
sg36
I00
sg240
I1
sbsg2978
g0
(g262
g184
(lp3051
tp3052
Rp3053
(dp3054
g29
I00
sg35
I00
sg36
I00
sg240
I1
sbsg2979
g0
(g262
g184
(lp3055
tp3056
Rp3057
(dp3058
g29
I00
sg35
I00
sg36
I00
sg240
I1
sbsg2980
g0
(g262
g184
(lp3059
tp3060
Rp3061
(dp3062
g29
I00
sg35
I00
sg36
I00
sg240
I1
sbsg2981
g0
(g183
g184
(lp3063
tp3064
Rp3065
(dp3066
g29
I00
sg35
I00
sg36
I00
sg240
I1
sbsg2982
g0
(g262
g184
(lp3067
tp3068
Rp3069
(dp3070
g29
I00
sg35
I00
sg36
I00
sg240
I1
sbsg2983
g0
(g31
g2
Ntp3071
Rp3072
(dp3073
g29
I00
sg35
I00
sg36
I00
sg37
I00
sbsg2984
g0
(cFWCore.ParameterSet.Types
_ObsoleteParameter
p3074
g2
Ntp3075
Rp3076
(dp3077
g29
I00
sg35
I00
sg36
I00
sg575
g31
sg594
Nsbsg2985
g0
(g3074
g2
Ntp3078
Rp3079
(dp3080
g29
I00
sg35
I00
sg36
I00
sg575
g66
sg594
Nsbsg2986
g0
(g3074
g2
Ntp3081
Rp3082
(dp3083
g29
I00
sg35
I00
sg36
I00
sg575
g31
sg594
Nsbsg250
g2958
sbssV_Process__vpsets
p3084
(dp3085
sV_cloneToObjectDict
p3086
(dp3087
L140398609361696L
g0
(g51
g2
Ntp3088
Rp3089
(dp3090
g29
I00
sg35
I00
sg36
I00
sg19
(lp3091
g2963
ag2964
ag2965
ag2966
ag2967
ag2968
ag2969
ag2970
ag2971
ag2972
ag2973
ag2974
ag2975
ag2976
ag2977
ag2978
ag2979
ag2980
ag2981
ag2982
ag2983
ag2984
ag2985
ag2986
asg30
Nsg2963
g0
(g176
g2
Ntp3092
Rp3093
(dp3094
g29
I00
sg35
I00
sg36
I00
sg37
I1
sbsg2964
g0
(g176
g2
Ntp3095
Rp3096
(dp3097
g29
I00
sg35
I00
sg36
I00
sg37
I0
sbsg2965
g0
(g176
g2
Ntp3098
Rp3099
(dp3100
g29
I00
sg35
I00
sg36
I00
sg37
I1
sbsg2966
g0
(g176
g2
Ntp3101
Rp3102
(dp3103
g29
I00
sg35
I00
sg36
I00
sg37
I0
sbsg2967
g0
(g51
g2
Ntp3104
Rp3105
(dp3106
g29
I00
sg35
I00
sg36
I00
sg19
(lp3107
g3003
ag3004
asg30
Nsg3003
g0
(g176
g2
Ntp3108
Rp3109
(dp3110
g29
I00
sg35
I00
sg36
I00
sg37
I0
sbsg3004
g0
(g51
g2
Ntp3111
Rp3112
(dp3113
g29
I00
sg35
I00
sg36
I00
sg19
(lp3114
sg30
g0
(g3012
g2
Ntp3115
Rp3116
(dp3117
g29
I00
sg35
I00
sg36
I00
sg575
g176
sg594
Nsbsbsbsg2968
g0
(g262
g184
(lp3118
g3017
atp3119
Rp3120
(dp3121
g29
I00
sg35
I00
sg36
I00
sg240
I1
sbsg2969
g0
(g31
g2
Ntp3122
Rp3123
(dp3124
g29
I00
sg35
I00
sg36
I00
sg37
I00
sbsg2970
g0
(g66
g2
Ntp3125
Rp3126
(dp3127
g29
I00
sg35
I00
sg36
I00
sg37
g3027
sbsg2971
g0
(g31
g2
Ntp3128
Rp3129
(dp3130
g29
I00
sg35
I00
sg36
I00
sg37
I00
sbsg2972
g0
(g31
g2
Ntp3131
Rp3132
(dp3133
g29
I00
sg35
I00
sg36
I00
sg37
I01
sbsg2973
g0
(g31
g2
Ntp3134
Rp3135
(dp3136
g29
I00
sg35
I00
sg36
I00
sg37
I00
sbsg2974
g0
(g31
g2
Ntp3137
Rp3138
(dp3139
g29
I00
sg35
I00
sg36
I00
sg37
I01
sbsg2975
g0
(g571
g2
Ntp3140
Rp3141
(dp3142
g29
I00
sg35
I00
sg36
I00
sg575
g176
sg594
Nsbsg2976
g0
(g262
g184
(lp3143
tp3144
Rp3145
(dp3146
g29
I00
sg35
I00
sg36
I00
sg240
I1
sbsg2977
g0
(g262
g184
(lp3147
tp3148
Rp3149
(dp3150
g29
I00
sg35
I00
sg36
I00
sg240
I1
sbsg2978
g0
(g262
g184
(lp3151
tp3152
Rp3153
(dp3154
g29
I00
sg35
I00
sg36
I00
sg240
I1
sbsg2979
g0
(g262
g184
(lp3155
tp3156
Rp3157
(dp3158
g29
I00
sg35
I00
sg36
I00
sg240
I1
sbsg2980
g0
(g262
g184
(lp3159
tp3160
Rp3161
(dp3162
g29
I00
sg35
I00
sg36
I00
sg240
I1
sbsg2981
g0
(g183
g184
(lp3163
tp3164
Rp3165
(dp3166
g29
I00
sg35
I00
sg36
I00
sg240
I1
sbsg2982
g0
(g262
g184
(lp3167
tp3168
Rp3169
(dp3170
g29
I00
sg35
I00
sg36
I00
sg240
I1
sbsg2983
g0
(g31
g2
Ntp3171
Rp3172
(dp3173
g29
I00
sg35
I00
sg36
I00
sg37
I00
sbsg2984
g0
(g3074
g2
Ntp3174
Rp3175
(dp3176
g29
I00
sg35
I00
sg36
I00
sg575
g31
sg594
Nsbsg2985
g0
(g3074
g2
Ntp3177
Rp3178
(dp3179
g29
I00
sg35
I00
sg36
I00
sg575
g66
sg594
Nsbsg2986
g0
(g3074
g2
Ntp3180
Rp3181
(dp3182
g29
I00
sg35
I00
sg36
I00
sg575
g31
sg594
Nsbsg250
NsbsL140398646208592L
g0
(g51
g2
Ntp3183
Rp3184
(dp3185
g29
I00
sg35
I00
sg36
I00
sg19
(lp3186
g2841
ag770
asg30
Nsg2841
g0
(g571
g2
Ntp3187
Rp3188
(dp3189
g29
I00
sg35
I00
sg36
I00
sg575
g75
sg594
Nsbsg770
g0
(g571
g2
Ntp3190
Rp3191
(dp3192
g29
I00
sg35
I00
sg36
I00
sg575
g0
(g2886
g2
Ntp3193
Rp3194
(dp3195
g2890
(g75
g51
tp3196
sg2892
Nsg2893
Vallowed(cms.int32,cms.PSet)
p3197
sbsg594
Nsbsg250
NsbsL140398646208352L
g2838
sL140398607777120L
g1833
sL140398605591648L
g2847
sL140398609522160L
g1841
sL140398608813072L
g1850
sL140398605592416L
g821
sL140398608691312L
g1134
sL140398608693616L
g900
sL140398643035680L
g1858
sL140398643034672L
g1876
sL140398608983280L
g1948
sL140398608985920L
g2026
sL140398607776832L
g1070
sL140398607777072L
g2828
sL140398609522016L
g2052
sL140398607326368L
g2067
sL140398608531360L
g2076
sL140398608530160L
g0
(g1831
g2
Ntp3198
Rp3199
(dp3200
g17
g2078
sg19
(lp3201
g2080
ag2081
ag903
asg29
I00
sg30
Nsg2080
g0
(g66
g2
Ntp3202
Rp3203
(dp3204
g29
I00
sg35
I01
sg36
I01
sg37
VforRawToDigi
p3205
sbsg36
I00
sg2081
g0
(g183
g184
(lp3206
g0
(g51
g2
Ntp3207
Rp3208
(dp3209
g29
I00
sg35
I01
sg36
I00
sg19
(lp3210
g2090
ag2091
asg30
Nsg2090
g0
(g66
g2
Ntp3211
Rp3212
(dp3213
g29
I00
sg35
I01
sg36
I00
sg37
g2095
sbsg2091
g0
(g66
g2
Ntp3214
Rp3215
(dp3216
g29
I00
sg35
I01
sg36
I00
sg37
g45
sbsbag0
(g51
g2
Ntp3217
Rp3218
(dp3219
g29
I00
sg35
I01
sg36
I00
sg19
(lp3220
g2090
ag2091
asg30
Nsg2090
g0
(g66
g2
Ntp3221
Rp3222
(dp3223
g29
I00
sg35
I01
sg36
I00
sg37
g2106
sbsg2091
g0
(g66
g2
Ntp3224
Rp3225
(dp3226
g29
I00
sg35
I01
sg36
I00
sg37
g45
sbsbatp3227
Rp3228
(dp3229
g29
I00
sg35
I01
sg36
I00
sg240
I1
sbsg903
g0
(g66
g2
Ntp3230
Rp3231
(dp3232
g29
I00
sg35
I01
sg36
I01
sg37
g3205
sbsg247
V/cvmfs/cms.cern.ch/el8_amd64_gcc12/cms/cmssw/CMSSW_14_0_10/src/CalibTracker/SiPixelESProducers/python/siPixelQualityForRawToDigiESProducer_cfi.py
p3233
sg249
I5
sg250
NsbsL140398611431040L
g2118
sL140398607451472L
g2161
sL140398611429216L
g2214
sL140398607326176L
g2253
sL140398607776928L
g2359
sL140398611427584L
g2365
sL140398644366256L
g2382
sL140398643961760L
g2426
sL140398607753952L
g2443
sL140398607758096L
g2448
sL140398607758528L
g2456
sL140398608636992L
g2461
sL140398607754528L
g2469
sL140398607759968L
g2506
sL140398606558688L
g2514
sL140398608713616L
g2519
sL140398608713232L
g2527
sL140398607753520L
g2535
sL140398607755104L
g2545
sL140398607757616L
g2550
sL140398643961616L
g2555
sL140398607753904L
g2563
sL140398644364768L
g2568
sL140398643034864L
g2579
sL140398608637280L
g2588
sL140398605390128L
g1808
sL140398605392336L
g2596
sL140398605390992L
g2607
sL140398605390800L
g2616
sL140398607758960L
g2625
sL140398605392480L
g2642
sL140398605390464L
g2679
sL140398605391328L
g2709
sL140398643959072L
g2728
sL140398607756640L
g2740
sL140398607755584L
g2757
sL140398607755008L
g2772
sL140398605223632L
g2781
sL140398605222288L
g2800
sL140398604925872L
g2874
sL140398605223776L
g2816
sL140398604996416L
g2897
sL140398604996128L
g15
sL140398605056464L
g282
sL140398605056608L
g2960
sL140398605056800L
g513
ssV_Process__InExtendCall
p3234
I00
sV_Process__partialschedules
p3235
(dp3236
sV_Process__isStrict
p3237
I00
sV_Process__modifiers
p3238
(tsV_Process__accelerators
p3239
(dp3240
sg2836
g2838
sg556
g559
sg1830
g1833
sg2845
g2847
sg1839
g1841
sg1848
g1850
sg818
g821
sg1082
g1134
sg898
g900
sg1856
g1858
sg1874
g1876
sg1946
g1948
sg2024
g2026
sg1068
g1070
sg2825
g2828
sg2050
g2052
sg2065
g2067
sg2074
g2076
sg2116
g2118
sg2159
g2161
sg2212
g2214
sg2251
g2253
sg2357
g2359
sg2363
g2365
sg2380
g2382
sg2424
g2426
sg2441
g2443
sg2446
g2448
sg2454
g2456
sg2459
g2461
sg2467
g2469
sg2504
g2506
sg2512
g2514
sg2517
g2519
sg2525
g2527
sg2533
g2535
sg2543
g2545
sg2548
g2550
sg2553
g2555
sg2561
g2563
sg2566
g2568
sg2577
g2579
sg2586
g2588
sg1806
g1808
sg2594
g2596
sg2605
g2607
sg2614
g2616
sg2623
g2625
sg2640
g2642
sg2677
g2679
sg2707
g2709
sg2726
g2728
sg2738
g2740
sg2755
g2757
sg2770
g2772
sg2779
g2781
sg2798
g2800
sg2872
g2874
sVsource
p3241
g256
sg258
g256
sg2814
g2816
sg2895
g2897
sg12
g15
sg279
g282
sg802
g804
sg2958
g2960
sg510
g513
sb.