(dp0
VServer
p1
Vcmsweb.cern.ch
p2
sVPort
p3
V
p4
sVRequestName
p5
V250401_111933:kakang_crab_ZeroBias_Run2022D_22Sep2023_v1_MINIAOD_ver0
p6
sVvoRole
p7
VNULL
p8
sVvoGroup
p9
Vbecms
p10
sVinstance
p11
Vprod
p12
sVOriginalConfig
p13
ccopy_reg
_reconstructor
p14
(cWMCore.Configuration
Configuration
p15
c__builtin__
object
p16
Ntp17
Rp18
(dp19
V_internal_sections
p20
(lp21
VGeneral
p22
aVJobType
p23
aVData
p24
aVUser
p25
aVSite
p26
asg22
g14
(cWMCore.Configuration
ConfigSection
p27
g16
Ntp28
Rp29
(dp30
V_internal_documentation
p31
g4
sV_internal_name
p32
g22
sV_internal_settings
p33
c__builtin__
set
p34
((lp35
VtransferLogs
p36
aVrequestName
p37
atp38
Rp39
sV_internal_docstrings
p40
(dp41
sV_internal_children
p42
g34
((lp43
tp44
Rp45
sV_internal_parent_ref
p46
NsV_internal_skipChecks
p47
I00
sg37
VZeroBias_Run2022D_22Sep2023_v1_MINIAOD_ver0
p48
sg36
I01
sbsg23
g14
(g27
g16
Ntp49
Rp50
(dp51
g31
g4
sg32
g23
sg33
g34
((lp52
VallowUndistributedCMSSW
p53
aVpsetName
p54
aVpyCfgParams
p55
aVpluginName
p56
atp57
Rp58
sg40
(dp59
sg42
g34
((lp60
tp61
Rp62
sg46
Nsg47
I00
sg54
V../test/residuals.py
p63
sg56
VAnalysis
p64
sg55
(lp65
VisData=1
p66
aVwithBS=1
p67
aVis2022=0
p68
asg53
I01
sbsg24
g14
(g27
g16
Ntp69
Rp70
(dp71
g31
g4
sg32
g24
sg33
g34
((lp72
VunitsPerJob
p73
aVlumiMask
p74
aVoutputDatasetTag
p75
aVoutLFNDirBase
p76
aVpublication
p77
aVtotalUnits
p78
aVpublishDBS
p79
aVinputDataset
p80
aVsplitting
p81
atp82
Rp83
sg40
(dp84
sg42
g34
((lp85
tp86
Rp87
sg46
Nsg47
I00
sg81
VLumiBased
p88
sg78
I-1
sg73
I50
sg74
VJSON/Cert_Collisions2022_355100_362760_Golden.json
p89
sg77
I00
sg80
V/ZeroBias/Run2022D-22Sep2023-v1/MINIAOD
p90
sg75
VRun2022D_22Sep2023_v1_MINIAOD
p91
sg79
Vhttps://cmsweb.cern.ch/dbs/prod/phys03/DBSWriter
p92
sg76
V/store/user/kakang/Run3TrackingAnalysis/Ntuple/Track-v20250401_withBS
p93
sbsg25
g14
(g27
g16
Ntp94
Rp95
(dp96
g31
g4
sg32
g25
sg33
g34
((lp97
g9
atp98
Rp99
sg40
(dp100
sg42
g34
((lp101
tp102
Rp103
sg46
Nsg47
I00
sg9
g10
sbsg26
g14
(g27
g16
Ntp104
Rp105
(dp106
g31
g4
sg32
g26
sg33
g34
((lp107
VstorageSite
p108
atp109
Rp110
sg40
(dp111
sg42
g34
((lp112
tp113
Rp114
sg46
Nsg47
I00
sg108
VT2_BE_IIHE
p115
sbsbs.